
hello-world.lpc1347-mote:     file format elf32-littlearm

SYMBOL TABLE:
00000000 l    d  .text	00000000 .text
10000100 l    d  .bss	00000000 .bss
10000450 l    d  .data	00000000 .data
00000000 l    d  .debug_info	00000000 .debug_info
00000000 l    d  .debug_abbrev	00000000 .debug_abbrev
00000000 l    d  .debug_aranges	00000000 .debug_aranges
00000000 l    d  .debug_line	00000000 .debug_line
00000000 l    d  .debug_str	00000000 .debug_str
00000000 l    d  .comment	00000000 .comment
00000000 l    d  .ARM.attributes	00000000 .ARM.attributes
00000000 l    d  .debug_frame	00000000 .debug_frame
00000000 l    d  .debug_ranges	00000000 .debug_ranges
00000000 l    df *ABS*	00000000 startup_lpc13u_gnumake.c
00000000 l    df *ABS*	00000000 hello-world.c
00000170 l     F .text	00000074 process_thread_hello_world_process
10000100 l       .bss	00000000 timer.5258
00000000 l    df *ABS*	00000000 contiki-main.c
0000023c l     F .text	00000012 platform_init
00000000 l    df *ABS*	00000000 process.c
1000011c l       .bss	00000000 lastevent
1000011d l       .bss	00000000 nevents
1000011e l       .bss	00000000 fevent
10000120 l       .bss	00000000 events
100002a0 l       .bss	00000000 poll_requested
000002d0 l     F .text	000000c4 exit_process
00000394 l     F .text	00000074 call_process
0000046c l     F .text	0000004c do_poll
000004b8 l     F .text	00000118 do_event
100002a1 l       .bss	00000000 ev.6086
100002a4 l       .bss	00000000 data.6087
100002a8 l       .bss	00000000 receiver.6088
100002ac l       .bss	00000000 p.6089
100002b0 l       .bss	00000000 snum.6104
00000000 l    df *ABS*	00000000 autostart.c
00000000 l    df *ABS*	00000000 etimer.c
100002b4 l       .bss	00000000 timerlist
100002b8 l       .bss	00000000 next_expiration
00000848 l     F .text	0000012c process_thread_etimer_process
000007c4 l     F .text	00000084 update_time
00000984 l     F .text	00000068 add_timer
00000000 l    df *ABS*	00000000 leds.c
100002bc l       .bss	00000000 leds
100002bd l       .bss	00000000 invert
00000b68 l     F .text	00000044 show_leds
00000000 l    df *ABS*	00000000 leds-arch.c
100002c0 l       .bss	00000000 green_on
100002c4 l       .bss	00000000 yellow_on
00000000 l    df *ABS*	00000000 clock.c
100002c8 l       .bss	00000000 current_clock
100002cc l       .bss	00000000 current_seconds
10000470 l     O .data	00000004 second_countdown
00000000 l    df *ABS*	00000000 system_LPC13Uxx.c
00000000 l    df *ABS*	00000000 gpio.c
00001288 l     F .text	00000030 NVIC_EnableIRQ
000012b8 l     F .text	00000034 NVIC_ClearPendingIRQ
00000000 l    df *ABS*	00000000 timer.c
00000000 l    df *ABS*	00000000 puts.c
00000000 l    df *ABS*	00000000 strlen.c
00000000 l    df *ABS*	00000000 fvwrite.c
00000000 l    df *ABS*	00000000 impure.c
10000478 l     O .data	00000428 impure_data
00000000 l    df *ABS*	00000000 mallocr.c
00000000 l    df *ABS*	00000000 memchr.c
00000000 l    df *ABS*	00000000 lib_a-memcpy.o
00000000 l    df *ABS*	00000000 memmove.c
00000000 l    df *ABS*	00000000 mlock.c
00000000 l    df *ABS*	00000000 mallocr.c
00000000 l    df *ABS*	00000000 sbrkr.c
00000000 l    df *ABS*	00000000 wsetup.c
00000000 l    df *ABS*	00000000 fflush.c
00000000 l    df *ABS*	00000000 findfp.c
000030f0 l     F .text	00000004 __fp_lock
000030f4 l     F .text	00000004 __fp_unlock
00003104 l     F .text	000000f0 __sinit.part.1
00000000 l    df *ABS*	00000000 mallocr.c
00000000 l    df *ABS*	00000000 fwalk.c
00000000 l    df *ABS*	00000000 makebuf.c
00000000 l    df *ABS*	00000000 memset.c
00000000 l    df *ABS*	00000000 reent.c
00000000 l    df *ABS*	00000000 stdio.c
00000000 l    df *ABS*	00000000 writer.c
00000000 l    df *ABS*	00000000 closer.c
00000000 l    df *ABS*	00000000 fclose.c
00000000 l    df *ABS*	00000000 fstatr.c
00000000 l    df *ABS*	00000000 isattyr.c
00000000 l    df *ABS*	00000000 lseekr.c
00000000 l    df *ABS*	00000000 readr.c
00000000 l    df *ABS*	00000000 syscalls.c
00003a0c l     F .text	00000038 findslot
00003a44 l     F .text	0000001c checkerror.part.0
1000039c l     O .bss	00000004 monitor_stdout
100003a0 l     O .bss	00000004 monitor_stdin
100003a4 l     O .bss	00000004 monitor_stderr
100003a8 l     O .bss	00000004 heap_end.5903
100003ac l     O .bss	000000a0 openfiles
00000000 l    df *ABS*	00000000 errno.c
00000000 l    df *ABS*	00000000 
1000031c g     O .bss	00000004 pin_int3_level_counter
00003998 g     F .text	00000024 _isatty_r
00003764 g     F .text	0000001a cleanup_glue
00001928 g     F .text	000001f8 GPIOSetPinInterrupt
00003d08  w    F .text	00000004 _getpid
00000148 g     F .text	00000006 SVCall_Handler
00001f48 g     F .text	00000060 _puts_r
000039bc g     F .text	00000028 _lseek_r
00000150  w    F .text	00000006 DebugMon_Handler
100002dc g     O .bss	00000004 pin_int3_counter
100002f8 g     O .bss	00000004 pin_int0_level_counter
00000cdc g     F .text	0000001a leds_arch_init
10000340 g     O .bss	00000004 pin_int6_level_counter
100002f0 g     O .bss	00000004 gint0_counter
00003868 g     F .text	00000020 __sseek
000032c0 g     F .text	0000000a __sinit
10000308 g     O .bss	00000004 pin_int1_rising_edge_counter
00000128  w    F .text	00000006 HardFault_Handler
100002f4 g     O .bss	00000004 gint1_counter
00000ac0 g     F .text	00000020 etimer_pending
000031f4 g     F .text	0000002e __sfmoreglue
10000358 g     O .bss	00000004 gint0_level_counter
00002a8c g     F .text	00000002 __malloc_unlock
00000cf8 g     F .text	0000003c leds_arch_get
00000160  w    F .text	00000006 SysTick_Handler
10000318 g     O .bss	00000004 pin_int2_falling_edge_counter
00003a60 g     F .text	000000a4 initialise_monitor_handles
000029c0 g     F .text	000000c6 memmove
000032ac g     F .text	00000014 _cleanup
00000158  w    F .text	00000006 PendSV_Handler
10000338 g     O .bss	00000004 pin_int5_rising_edge_counter
00000120  w    F .text	00000006 NMI_Handler
1000035c g     O .bss	00000004 gint0_edge_counter
00000624 g     F .text	000000a0 process_post
000040b0 g       .text	00000000 __exidx_end
10000110 g     O .bss	00000004 idle_count
00004028 g     F .text	0000000c __errno
10000460 g     O .data	00000010 etimer_process
00000168  w    F .text	00000006 CT16B0_IRQHandler
100002ec g     O .bss	00000004 pin_int7_counter
00003f38 g     F .text	00000012 _clock
00003970 g     F .text	00000028 _fstat_r
100002d4 g     O .bss	00000004 pin_int1_counter
1000044c g     O .bss	00000004 errno
0000382c g     F .text	00000004 __seofread
00000a0c g     F .text	0000001c etimer_reset
00000c98 g     F .text	00000018 leds_toggle
00000000 g       .text	00000000 __text_start
00000600 g     F .text	00000024 process_nevents
00001b20 g     F .text	0000006c GPIOPinIntEnable
000040b0 g       *ABS*	00000000 __data_load_addr
10000450 g       .bss	00000000 __fixed_heap_end
10000114 g     O .bss	00000004 process_list
1000030c g     O .bss	00000004 pin_int1_falling_edge_counter
000028d4 g     F .text	000000ec memcpy
000030f8 g     F .text	0000000c _cleanup_r
00000168  w    F .text	00000006 USART_IRQHandler
10000328 g     O .bss	00000004 pin_int4_level_counter
00001fa8 g     F .text	00000010 puts
10000474 g     O .data	00000004 SystemCoreClock
00000168  w    F .text	00000006 OSCFAIL_IRQHandler
10000304 g     O .bss	00000004 pin_int1_level_counter
00000168  w    F .text	00000006 CT16B1_IRQHandler
100002fc g     O .bss	00000004 pin_int0_rising_edge_counter
00003d88  w    F .text	0000001c _fstat
00000140  w    F .text	00000006 UsageFault_Handler
00000270 g     F .text	00000060 process_start
10000370 g     O .bss	00000004 __malloc_top_pad
00003d40 g     F .text	00000048 _swistat
00000168  w    F .text	00000006 OSTIMER_IRQHandler
000006c4 g     F .text	00000030 process_post_synch
00002014 g     F .text	00000320 __sfvwrite_r
00002e70 g     F .text	00000024 _sbrk_r
000016dc g     F .text	000000a8 PIN_INT6_IRQHandler
00000168  w    F .text	00000006 IntDefaultHandler
000009ec g     F .text	00000020 etimer_set
000039e4 g     F .text	00000028 _read_r
0000158c g     F .text	000000a8 PIN_INT4_IRQHandler
00001d80 g     F .text	0000005a GPIOGetPinValue
000038dc g     F .text	00000084 _fclose_r
10000310 g     O .bss	00000004 pin_int2_level_counter
000030cc g     F .text	00000024 fflush
1000036c g     O .bss	00000004 __malloc_max_sbrked_mem
10000320 g     O .bss	00000004 pin_int3_rising_edge_counter
00000d34 g     F .text	00000070 leds_arch_set
00000168  w    F .text	00000006 SSP0_IRQHandler
000040b0 g       .text	00000000 __exidx_start
00003f6c g     F .text	0000003a _isatty
00000c20 g     F .text	0000003c leds_on
000040a8 g     O .text	00000004 _global_impure_ptr
000006f4 g     F .text	00000038 process_poll
100002e4 g     O .bss	00000004 pin_int5_counter
00002a90 g     F .text	000003e0 _realloc_r
10000450 g       .bss	00000000 __bss_end
00003eb4 g     F .text	00000012 _open
00003d0c  w    F .text	00000034 _sbrk
00000a44 g     F .text	00000020 etimer_adjust
000032dc g     F .text	00000014 __fp_lock_all
00000250 g     F .text	00000020 process_alloc_event
100002e8 g     O .bss	00000004 pin_int6_counter
00001b8c g     F .text	0000006c GPIOPinIntDisable
00003f4c g     F .text	0000001e _times
00000a28 g     F .text	0000001c etimer_restart
000000c0 g     F .text	00000060 Reset_Handler
00003780 g     F .text	00000088 _reclaim_reent
00000da4 g     F .text	00000080 SysTick_handler
10000300 g     O .bss	00000004 pin_int0_falling_edge_counter
00000c5c g     F .text	0000003c leds_off
00000168  w    F .text	00000006 USBWakeup_IRQHandler
00000408 g     F .text	00000020 process_exit
00003da4  w    F .text	0000003a _stat
100002e0 g     O .bss	00000004 pin_int4_counter
00000e24 g     F .text	0000003c clock_init
00000aa8 g     F .text	00000018 etimer_start_time
00001ef4 g     F .text	00000030 timer_expired
00000c10 g     F .text	0000000e leds_get
10000450 g       .bss	00000000 end
00001c60 g     F .text	00000120 GPIOSetGroupedInterrupt
00000168  w    F .text	00000006 CT32B1_IRQHandler
00000168  w    F .text	00000006 PVTCIRCUIT_IRQHandler
000032cc g     F .text	00000002 __sfp_lock_acquire
00002840 g     F .text	00000092 memchr
00001634 g     F .text	000000a8 PIN_INT5_IRQHandler
10000354 g     O .bss	00000004 pin_int7_falling_edge_counter
000033a0 g     F .text	000001b0 _free_r
0000143c g     F .text	000000a8 PIN_INT2_IRQHandler
10000cb0 g     O .data	00000004 __malloc_sbrk_base
00000168  w    F .text	00000006 USB_FIQHandler
00003bf4 g     F .text	00000004 _lseek
00000cb0 g     F .text	0000002c leds_invert
00000f70 g     F .text	00000018 clock_seconds
10000344 g     O .bss	00000004 pin_int6_rising_edge_counter
00000000 g     O .text	000000c0 Vectors
00000168  w    F .text	00000006 ADC_IRQHandler
10000cb4 g       .data	00000000 __data_end
0000072c g     F .text	00000022 process_is_running
10000374 g     O .bss	00000028 __malloc_current_mallinfo
00000168  w    F .text	00000006 SSP1_IRQHandler
00001784 g     F .text	000000a8 PIN_INT7_IRQHandler
00000ae0 g     F .text	00000020 etimer_next_expiration_time
000038b8 g     F .text	00000024 _close_r
00000974 g     F .text	00000010 etimer_request_poll
00001394 g     F .text	000000a8 PIN_INT1_IRQHandler
00000168  w    F .text	00000006 USB_IRQHandler
00002e94 g     F .text	000000c4 __swsetup_r
100002d0 g     O .bss	00000004 pin_int0_counter
00003224 g     F .text	00000088 __sfp
10000360 g     O .bss	00000004 gint1_level_counter
100008a4 g     O .data	00000408 __malloc_av_
00000168  w    F .text	00000006 BOD_IRQHandler
000040b0 g       .text	00000000 __text_end
000032d8 g     F .text	00000002 __sinit_lock_release
1000032c g     O .bss	00000004 pin_int4_rising_edge_counter
00003808 g     F .text	00000022 __sread
00000f58 g     F .text	00000018 clock_delay
00002a88 g     F .text	00000002 __malloc_lock
000030a0 g     F .text	0000002c _fflush_r
00000e78 g     F .text	000000c4 timer16DelayUSecs
100002d8 g     O .bss	00000004 pin_int2_counter
10000100 g       .bss	00000000 __bss_start
10000364 g     O .bss	00000004 gint1_edge_counter
00000168  w    F .text	00000006 I2C_IRQHandler
00000428 g     F .text	00000044 process_init
000036c8 g     F .text	0000009a memset
00000130  w    F .text	00000006 MemManage_Handler
000001e4 g     F .text	00000058 main
00003ec8  w    F .text	00000010 _link
00001e2c g     F .text	0000006e GPIOSetDir
10000368 g     O .bss	00000004 __malloc_max_total_mem
00000168  w    F .text	00000006 WDT_IRQHandler
00000000  w      *UND*	00000000 SVC_Handler
00003888 g     F .text	00000008 __sclose
00003960 g     F .text	00000010 fclose
00002334 g     F .text	0000050c _malloc_r
10000330 g     O .bss	00000004 pin_int4_falling_edge_counter
00000a88 g     F .text	0000001e etimer_expiration_time
00003550 g     F .text	00000048 _fwalk
00001f24 g     F .text	00000022 timer_remaining
00003bf8 g     F .text	00000028 _swiwrite
00003fec g     F .text	0000003c _rename
00003304 g     F .text	0000009c _malloc_trim_r
00000bd4 g     F .text	0000003c leds_blink
000012ec g     F .text	000000a8 PIN_INT0_IRQHandler
000011b8 g     F .text	000000d0 SystemInit
00000b00 g     F .text	00000068 etimer_stop
00003b60 g     F .text	00000094 _swilseek
00003890 g     F .text	00000028 _write_r
00001ddc g     F .text	00000050 GPIOSetBitValue
00000168  w    F .text	00000006 CT32B0_IRQHandler
10002000 g       *ABS*	00000000 __StackTop
100008a0 g     O .data	00000004 _impure_ptr
00003c78 g     F .text	00000026 _swiclose
00002f58 g     F .text	00000148 __sflush_r
00001c28 g     F .text	00000038 GPIOPinIntClear
00003de0 g     F .text	000000d4 _swiopen
000032f0 g     F .text	00000014 __fp_unlock_all
00001e9c g     F .text	00000020 timer_set
00003ed8 g     F .text	0000003c _unlink
00001edc g     F .text	00000018 timer_restart
00001ebc g     F .text	00000020 timer_reset
0000182c g     F .text	00000064 GINT0_IRQHandler
000005d0 g     F .text	00000030 process_run
00003c20  w    F .text	00000056 _write
10000118 g     O .bss	00000004 process_current
00000a64 g     F .text	00000022 etimer_expired
00004048 g     O .text	00000008 autostart_processes
00003830 g     F .text	00000038 __swrite
10000cac g     O .data	00000004 __malloc_trim_threshold
00003598 g     F .text	00000050 _fwalk_reent
00000f88 g     F .text	00000230 SystemCoreClockUpdate
000032d0 g     F .text	00000002 __sfp_lock_release
000018f4 g     F .text	00000034 GPIOInit
00003f14 g     F .text	00000024 _gettimeofday
0000078c g     F .text	00000038 autostart_exit
00000f3c g     F .text	0000001a clock_delay_usec
00003b2c  w    F .text	00000034 _read
000014e4 g     F .text	000000a8 PIN_INT3_IRQHandler
1000034c g     O .bss	00000004 pin_int7_level_counter
00000e60 g     F .text	00000018 clock_time
00000138  w    F .text	00000006 BusFault_Handler
000035e8 g     F .text	000000e0 __smakebuf_r
10000314 g     O .bss	00000004 pin_int2_rising_edge_counter
00001fb8 g     F .text	0000005c strlen
10000450 g     O .data	00000010 hello_world_process
10000348 g     O .bss	00000004 pin_int6_falling_edge_counter
10000350 g     O .bss	00000004 pin_int7_rising_edge_counter
00000168  w    F .text	00000006 FMC_IRQHandler
10000450 g       .data	00000000 __data_start
00000750 g     F .text	0000003a autostart_start
00001890 g     F .text	00000064 GINT1_IRQHandler
1000033c g     O .bss	00000004 pin_int5_falling_edge_counter
00001bf8 g     F .text	00000030 GPIOPinIntStatus
00003fa8 g     F .text	00000042 _system
10000324 g     O .bss	00000004 pin_int3_falling_edge_counter
00003b04 g     F .text	00000028 _swiread
00003ca0 g     F .text	00000068 _close
10000334 g     O .bss	00000004 pin_int5_level_counter
000032d4 g     F .text	00000002 __sinit_lock_acquire
00000bac g     F .text	00000028 leds_init



Disassembly of section .text:

00000000 <Vectors>:
       0:	00 20 00 10 c1 00 00 00 21 01 00 00 29 01 00 00     . ......!...)...
      10:	31 01 00 00 39 01 00 00 41 01 00 00 00 00 00 00     1...9...A.......
	...
      30:	51 01 00 00 00 00 00 00 59 01 00 00 61 01 00 00     Q.......Y...a...
      40:	ed 12 00 00 95 13 00 00 3d 14 00 00 e5 14 00 00     ........=.......
      50:	8d 15 00 00 35 16 00 00 dd 16 00 00 85 17 00 00     ....5...........
      60:	2d 18 00 00 91 18 00 00 00 00 00 00 00 00 00 00     -...............
      70:	69 01 00 00 00 00 00 00 69 01 00 00 69 01 00 00     i.......i...i...
      80:	69 01 00 00 69 01 00 00 69 01 00 00 69 01 00 00     i...i...i...i...
      90:	69 01 00 00 69 01 00 00 69 01 00 00 69 01 00 00     i...i...i...i...
      a0:	69 01 00 00 69 01 00 00 69 01 00 00 69 01 00 00     i...i...i...i...
      b0:	69 01 00 00 69 01 00 00 69 01 00 00 00 00 00 00     i...i...i.......

000000c0 <Reset_Handler>:
      c0:	b580      	push	{r7, lr}
      c2:	b082      	sub	sp, #8
      c4:	af00      	add	r7, sp, #0
      c6:	4b11      	ldr	r3, [pc, #68]	; (10c <Reset_Handler+0x4c>)
      c8:	607b      	str	r3, [r7, #4]
      ca:	4b11      	ldr	r3, [pc, #68]	; (110 <Reset_Handler+0x50>)
      cc:	603b      	str	r3, [r7, #0]
      ce:	e007      	b.n	e0 <Reset_Handler+0x20>
      d0:	683b      	ldr	r3, [r7, #0]
      d2:	1d1a      	adds	r2, r3, #4
      d4:	603a      	str	r2, [r7, #0]
      d6:	687a      	ldr	r2, [r7, #4]
      d8:	1d11      	adds	r1, r2, #4
      da:	6079      	str	r1, [r7, #4]
      dc:	6812      	ldr	r2, [r2, #0]
      de:	601a      	str	r2, [r3, #0]
      e0:	683b      	ldr	r3, [r7, #0]
      e2:	4a0c      	ldr	r2, [pc, #48]	; (114 <Reset_Handler+0x54>)
      e4:	4293      	cmp	r3, r2
      e6:	d3f3      	bcc.n	d0 <Reset_Handler+0x10>
      e8:	4b0b      	ldr	r3, [pc, #44]	; (118 <Reset_Handler+0x58>)
      ea:	603b      	str	r3, [r7, #0]
      ec:	e004      	b.n	f8 <Reset_Handler+0x38>
      ee:	683b      	ldr	r3, [r7, #0]
      f0:	1d1a      	adds	r2, r3, #4
      f2:	603a      	str	r2, [r7, #0]
      f4:	2200      	movs	r2, #0
      f6:	601a      	str	r2, [r3, #0]
      f8:	683b      	ldr	r3, [r7, #0]
      fa:	4a08      	ldr	r2, [pc, #32]	; (11c <Reset_Handler+0x5c>)
      fc:	4293      	cmp	r3, r2
      fe:	d3f6      	bcc.n	ee <Reset_Handler+0x2e>
     100:	f001 f85a 	bl	11b8 <SystemInit>
     104:	f000 f86e 	bl	1e4 <main>
     108:	e7fe      	b.n	108 <Reset_Handler+0x48>
     10a:	bf00      	nop
     10c:	000040b0 	.word	0x000040b0
     110:	10000450 	.word	0x10000450
     114:	10000cb4 	.word	0x10000cb4
     118:	10000100 	.word	0x10000100
     11c:	10000450 	.word	0x10000450

00000120 <NMI_Handler>:
     120:	b480      	push	{r7}
     122:	af00      	add	r7, sp, #0
     124:	e7fe      	b.n	124 <NMI_Handler+0x4>
     126:	bf00      	nop

00000128 <HardFault_Handler>:
     128:	b480      	push	{r7}
     12a:	af00      	add	r7, sp, #0
     12c:	e7fe      	b.n	12c <HardFault_Handler+0x4>
     12e:	bf00      	nop

00000130 <MemManage_Handler>:
     130:	b480      	push	{r7}
     132:	af00      	add	r7, sp, #0
     134:	e7fe      	b.n	134 <MemManage_Handler+0x4>
     136:	bf00      	nop

00000138 <BusFault_Handler>:
     138:	b480      	push	{r7}
     13a:	af00      	add	r7, sp, #0
     13c:	e7fe      	b.n	13c <BusFault_Handler+0x4>
     13e:	bf00      	nop

00000140 <UsageFault_Handler>:
     140:	b480      	push	{r7}
     142:	af00      	add	r7, sp, #0
     144:	e7fe      	b.n	144 <UsageFault_Handler+0x4>
     146:	bf00      	nop

00000148 <SVCall_Handler>:
     148:	b480      	push	{r7}
     14a:	af00      	add	r7, sp, #0
     14c:	e7fe      	b.n	14c <SVCall_Handler+0x4>
     14e:	bf00      	nop

00000150 <DebugMon_Handler>:
     150:	b480      	push	{r7}
     152:	af00      	add	r7, sp, #0
     154:	e7fe      	b.n	154 <DebugMon_Handler+0x4>
     156:	bf00      	nop

00000158 <PendSV_Handler>:
     158:	b480      	push	{r7}
     15a:	af00      	add	r7, sp, #0
     15c:	e7fe      	b.n	15c <PendSV_Handler+0x4>
     15e:	bf00      	nop

00000160 <SysTick_Handler>:
     160:	b480      	push	{r7}
     162:	af00      	add	r7, sp, #0
     164:	e7fe      	b.n	164 <SysTick_Handler+0x4>
     166:	bf00      	nop

00000168 <ADC_IRQHandler>:
     168:	b480      	push	{r7}
     16a:	af00      	add	r7, sp, #0
     16c:	e7fe      	b.n	16c <ADC_IRQHandler+0x4>
     16e:	bf00      	nop

00000170 <process_thread_hello_world_process>:
     170:	b580      	push	{r7, lr}
     172:	b086      	sub	sp, #24
     174:	af00      	add	r7, sp, #0
     176:	60f8      	str	r0, [r7, #12]
     178:	460b      	mov	r3, r1
     17a:	607a      	str	r2, [r7, #4]
     17c:	72fb      	strb	r3, [r7, #11]
     17e:	2301      	movs	r3, #1
     180:	75fb      	strb	r3, [r7, #23]
     182:	68fb      	ldr	r3, [r7, #12]
     184:	881b      	ldrh	r3, [r3, #0]
     186:	2b00      	cmp	r3, #0
     188:	d002      	beq.n	190 <process_thread_hello_world_process+0x20>
     18a:	2b2c      	cmp	r3, #44	; 0x2c
     18c:	d00d      	beq.n	1aa <process_thread_hello_world_process+0x3a>
     18e:	e01a      	b.n	1c6 <process_thread_hello_world_process+0x56>
     190:	4812      	ldr	r0, [pc, #72]	; (1dc <process_thread_hello_world_process+0x6c>)
     192:	f001 ff09 	bl	1fa8 <puts>
     196:	4812      	ldr	r0, [pc, #72]	; (1e0 <process_thread_hello_world_process+0x70>)
     198:	f241 3188 	movw	r1, #5000	; 0x1388
     19c:	f000 fc26 	bl	9ec <etimer_set>
     1a0:	2300      	movs	r3, #0
     1a2:	75fb      	strb	r3, [r7, #23]
     1a4:	68fb      	ldr	r3, [r7, #12]
     1a6:	222c      	movs	r2, #44	; 0x2c
     1a8:	801a      	strh	r2, [r3, #0]
     1aa:	7dfb      	ldrb	r3, [r7, #23]
     1ac:	2b00      	cmp	r3, #0
     1ae:	d002      	beq.n	1b6 <process_thread_hello_world_process+0x46>
     1b0:	7afb      	ldrb	r3, [r7, #11]
     1b2:	2b88      	cmp	r3, #136	; 0x88
     1b4:	d001      	beq.n	1ba <process_thread_hello_world_process+0x4a>
     1b6:	2301      	movs	r3, #1
     1b8:	e00b      	b.n	1d2 <process_thread_hello_world_process+0x62>
     1ba:	f000 fd0b 	bl	bd4 <leds_blink>
     1be:	4808      	ldr	r0, [pc, #32]	; (1e0 <process_thread_hello_world_process+0x70>)
     1c0:	f000 fc24 	bl	a0c <etimer_reset>
     1c4:	e7ec      	b.n	1a0 <process_thread_hello_world_process+0x30>
     1c6:	2300      	movs	r3, #0
     1c8:	75fb      	strb	r3, [r7, #23]
     1ca:	68fb      	ldr	r3, [r7, #12]
     1cc:	2200      	movs	r2, #0
     1ce:	801a      	strh	r2, [r3, #0]
     1d0:	2303      	movs	r3, #3
     1d2:	4618      	mov	r0, r3
     1d4:	3718      	adds	r7, #24
     1d6:	46bd      	mov	sp, r7
     1d8:	bd80      	pop	{r7, pc}
     1da:	bf00      	nop
     1dc:	00004050 	.word	0x00004050
     1e0:	10000100 	.word	0x10000100

000001e4 <main>:
     1e4:	b580      	push	{r7, lr}
     1e6:	af00      	add	r7, sp, #0
     1e8:	f000 f828 	bl	23c <platform_init>
     1ec:	480d      	ldr	r0, [pc, #52]	; (224 <main+0x40>)
     1ee:	f001 fedb 	bl	1fa8 <puts>
     1f2:	480d      	ldr	r0, [pc, #52]	; (228 <main+0x44>)
     1f4:	f001 fed8 	bl	1fa8 <puts>
     1f8:	480c      	ldr	r0, [pc, #48]	; (22c <main+0x48>)
     1fa:	2100      	movs	r1, #0
     1fc:	f000 f838 	bl	270 <process_start>
     200:	480b      	ldr	r0, [pc, #44]	; (230 <main+0x4c>)
     202:	f000 faa5 	bl	750 <autostart_start>
     206:	480b      	ldr	r0, [pc, #44]	; (234 <main+0x50>)
     208:	f001 fece 	bl	1fa8 <puts>
     20c:	f000 f9e0 	bl	5d0 <process_run>
     210:	4603      	mov	r3, r0
     212:	2b00      	cmp	r3, #0
     214:	dcfa      	bgt.n	20c <main+0x28>
     216:	4b08      	ldr	r3, [pc, #32]	; (238 <main+0x54>)
     218:	681b      	ldr	r3, [r3, #0]
     21a:	3301      	adds	r3, #1
     21c:	4a06      	ldr	r2, [pc, #24]	; (238 <main+0x54>)
     21e:	6013      	str	r3, [r2, #0]
     220:	e7f4      	b.n	20c <main+0x28>
     222:	bf00      	nop
     224:	00004060 	.word	0x00004060
     228:	00004070 	.word	0x00004070
     22c:	10000460 	.word	0x10000460
     230:	00004048 	.word	0x00004048
     234:	00004080 	.word	0x00004080
     238:	10000110 	.word	0x10000110

0000023c <platform_init>:
     23c:	b580      	push	{r7, lr}
     23e:	af00      	add	r7, sp, #0
     240:	f000 fdf0 	bl	e24 <clock_init>
     244:	f000 f8f0 	bl	428 <process_init>
     248:	f000 fcb0 	bl	bac <leds_init>
     24c:	bd80      	pop	{r7, pc}
     24e:	bf00      	nop

00000250 <process_alloc_event>:
     250:	b480      	push	{r7}
     252:	af00      	add	r7, sp, #0
     254:	4b05      	ldr	r3, [pc, #20]	; (26c <process_alloc_event+0x1c>)
     256:	781b      	ldrb	r3, [r3, #0]
     258:	1c5a      	adds	r2, r3, #1
     25a:	b2d1      	uxtb	r1, r2
     25c:	4a03      	ldr	r2, [pc, #12]	; (26c <process_alloc_event+0x1c>)
     25e:	7011      	strb	r1, [r2, #0]
     260:	4618      	mov	r0, r3
     262:	46bd      	mov	sp, r7
     264:	f85d 7b04 	ldr.w	r7, [sp], #4
     268:	4770      	bx	lr
     26a:	bf00      	nop
     26c:	1000011c 	.word	0x1000011c

00000270 <process_start>:
     270:	b580      	push	{r7, lr}
     272:	b084      	sub	sp, #16
     274:	af00      	add	r7, sp, #0
     276:	6078      	str	r0, [r7, #4]
     278:	6039      	str	r1, [r7, #0]
     27a:	4b14      	ldr	r3, [pc, #80]	; (2cc <process_start+0x5c>)
     27c:	681b      	ldr	r3, [r3, #0]
     27e:	60fb      	str	r3, [r7, #12]
     280:	e002      	b.n	288 <process_start+0x18>
     282:	68fb      	ldr	r3, [r7, #12]
     284:	681b      	ldr	r3, [r3, #0]
     286:	60fb      	str	r3, [r7, #12]
     288:	68fa      	ldr	r2, [r7, #12]
     28a:	687b      	ldr	r3, [r7, #4]
     28c:	429a      	cmp	r2, r3
     28e:	d002      	beq.n	296 <process_start+0x26>
     290:	68fb      	ldr	r3, [r7, #12]
     292:	2b00      	cmp	r3, #0
     294:	d1f5      	bne.n	282 <process_start+0x12>
     296:	68fa      	ldr	r2, [r7, #12]
     298:	687b      	ldr	r3, [r7, #4]
     29a:	429a      	cmp	r2, r3
     29c:	d100      	bne.n	2a0 <process_start+0x30>
     29e:	e011      	b.n	2c4 <process_start+0x54>
     2a0:	4b0a      	ldr	r3, [pc, #40]	; (2cc <process_start+0x5c>)
     2a2:	681a      	ldr	r2, [r3, #0]
     2a4:	687b      	ldr	r3, [r7, #4]
     2a6:	601a      	str	r2, [r3, #0]
     2a8:	4a08      	ldr	r2, [pc, #32]	; (2cc <process_start+0x5c>)
     2aa:	687b      	ldr	r3, [r7, #4]
     2ac:	6013      	str	r3, [r2, #0]
     2ae:	687b      	ldr	r3, [r7, #4]
     2b0:	2201      	movs	r2, #1
     2b2:	739a      	strb	r2, [r3, #14]
     2b4:	687b      	ldr	r3, [r7, #4]
     2b6:	2200      	movs	r2, #0
     2b8:	819a      	strh	r2, [r3, #12]
     2ba:	6878      	ldr	r0, [r7, #4]
     2bc:	2181      	movs	r1, #129	; 0x81
     2be:	683a      	ldr	r2, [r7, #0]
     2c0:	f000 fa00 	bl	6c4 <process_post_synch>
     2c4:	3710      	adds	r7, #16
     2c6:	46bd      	mov	sp, r7
     2c8:	bd80      	pop	{r7, pc}
     2ca:	bf00      	nop
     2cc:	10000114 	.word	0x10000114

000002d0 <exit_process>:
     2d0:	b590      	push	{r4, r7, lr}
     2d2:	b085      	sub	sp, #20
     2d4:	af00      	add	r7, sp, #0
     2d6:	6078      	str	r0, [r7, #4]
     2d8:	6039      	str	r1, [r7, #0]
     2da:	4b2c      	ldr	r3, [pc, #176]	; (38c <exit_process+0xbc>)
     2dc:	681b      	ldr	r3, [r3, #0]
     2de:	60fb      	str	r3, [r7, #12]
     2e0:	4b2b      	ldr	r3, [pc, #172]	; (390 <exit_process+0xc0>)
     2e2:	681c      	ldr	r4, [r3, #0]
     2e4:	e000      	b.n	2e8 <exit_process+0x18>
     2e6:	6824      	ldr	r4, [r4, #0]
     2e8:	687b      	ldr	r3, [r7, #4]
     2ea:	429c      	cmp	r4, r3
     2ec:	d001      	beq.n	2f2 <exit_process+0x22>
     2ee:	2c00      	cmp	r4, #0
     2f0:	d1f9      	bne.n	2e6 <exit_process+0x16>
     2f2:	2c00      	cmp	r4, #0
     2f4:	d100      	bne.n	2f8 <exit_process+0x28>
     2f6:	e045      	b.n	384 <exit_process+0xb4>
     2f8:	6878      	ldr	r0, [r7, #4]
     2fa:	f000 fa17 	bl	72c <process_is_running>
     2fe:	4603      	mov	r3, r0
     300:	2b00      	cmp	r3, #0
     302:	d023      	beq.n	34c <exit_process+0x7c>
     304:	687b      	ldr	r3, [r7, #4]
     306:	2200      	movs	r2, #0
     308:	739a      	strb	r2, [r3, #14]
     30a:	4b21      	ldr	r3, [pc, #132]	; (390 <exit_process+0xc0>)
     30c:	681c      	ldr	r4, [r3, #0]
     30e:	e008      	b.n	322 <exit_process+0x52>
     310:	687b      	ldr	r3, [r7, #4]
     312:	42a3      	cmp	r3, r4
     314:	d004      	beq.n	320 <exit_process+0x50>
     316:	4620      	mov	r0, r4
     318:	2187      	movs	r1, #135	; 0x87
     31a:	687a      	ldr	r2, [r7, #4]
     31c:	f000 f83a 	bl	394 <call_process>
     320:	6824      	ldr	r4, [r4, #0]
     322:	2c00      	cmp	r4, #0
     324:	d1f4      	bne.n	310 <exit_process+0x40>
     326:	687b      	ldr	r3, [r7, #4]
     328:	689b      	ldr	r3, [r3, #8]
     32a:	2b00      	cmp	r3, #0
     32c:	d00e      	beq.n	34c <exit_process+0x7c>
     32e:	687a      	ldr	r2, [r7, #4]
     330:	683b      	ldr	r3, [r7, #0]
     332:	429a      	cmp	r2, r3
     334:	d00a      	beq.n	34c <exit_process+0x7c>
     336:	4a15      	ldr	r2, [pc, #84]	; (38c <exit_process+0xbc>)
     338:	687b      	ldr	r3, [r7, #4]
     33a:	6013      	str	r3, [r2, #0]
     33c:	687b      	ldr	r3, [r7, #4]
     33e:	689b      	ldr	r3, [r3, #8]
     340:	687a      	ldr	r2, [r7, #4]
     342:	320c      	adds	r2, #12
     344:	4610      	mov	r0, r2
     346:	2183      	movs	r1, #131	; 0x83
     348:	2200      	movs	r2, #0
     34a:	4798      	blx	r3
     34c:	4b10      	ldr	r3, [pc, #64]	; (390 <exit_process+0xc0>)
     34e:	681b      	ldr	r3, [r3, #0]
     350:	687a      	ldr	r2, [r7, #4]
     352:	429a      	cmp	r2, r3
     354:	d105      	bne.n	362 <exit_process+0x92>
     356:	4b0e      	ldr	r3, [pc, #56]	; (390 <exit_process+0xc0>)
     358:	681b      	ldr	r3, [r3, #0]
     35a:	681b      	ldr	r3, [r3, #0]
     35c:	4a0c      	ldr	r2, [pc, #48]	; (390 <exit_process+0xc0>)
     35e:	6013      	str	r3, [r2, #0]
     360:	e00d      	b.n	37e <exit_process+0xae>
     362:	4b0b      	ldr	r3, [pc, #44]	; (390 <exit_process+0xc0>)
     364:	681c      	ldr	r4, [r3, #0]
     366:	e008      	b.n	37a <exit_process+0xaa>
     368:	6822      	ldr	r2, [r4, #0]
     36a:	687b      	ldr	r3, [r7, #4]
     36c:	429a      	cmp	r2, r3
     36e:	d103      	bne.n	378 <exit_process+0xa8>
     370:	687b      	ldr	r3, [r7, #4]
     372:	681b      	ldr	r3, [r3, #0]
     374:	6023      	str	r3, [r4, #0]
     376:	e002      	b.n	37e <exit_process+0xae>
     378:	6824      	ldr	r4, [r4, #0]
     37a:	2c00      	cmp	r4, #0
     37c:	d1f4      	bne.n	368 <exit_process+0x98>
     37e:	4a03      	ldr	r2, [pc, #12]	; (38c <exit_process+0xbc>)
     380:	68fb      	ldr	r3, [r7, #12]
     382:	6013      	str	r3, [r2, #0]
     384:	3714      	adds	r7, #20
     386:	46bd      	mov	sp, r7
     388:	bd90      	pop	{r4, r7, pc}
     38a:	bf00      	nop
     38c:	10000118 	.word	0x10000118
     390:	10000114 	.word	0x10000114

00000394 <call_process>:
     394:	b580      	push	{r7, lr}
     396:	b086      	sub	sp, #24
     398:	af00      	add	r7, sp, #0
     39a:	60f8      	str	r0, [r7, #12]
     39c:	460b      	mov	r3, r1
     39e:	607a      	str	r2, [r7, #4]
     3a0:	72fb      	strb	r3, [r7, #11]
     3a2:	68fb      	ldr	r3, [r7, #12]
     3a4:	7b9b      	ldrb	r3, [r3, #14]
     3a6:	f003 0301 	and.w	r3, r3, #1
     3aa:	2b00      	cmp	r3, #0
     3ac:	d026      	beq.n	3fc <call_process+0x68>
     3ae:	68fb      	ldr	r3, [r7, #12]
     3b0:	689b      	ldr	r3, [r3, #8]
     3b2:	2b00      	cmp	r3, #0
     3b4:	d022      	beq.n	3fc <call_process+0x68>
     3b6:	4a13      	ldr	r2, [pc, #76]	; (404 <call_process+0x70>)
     3b8:	68fb      	ldr	r3, [r7, #12]
     3ba:	6013      	str	r3, [r2, #0]
     3bc:	68fb      	ldr	r3, [r7, #12]
     3be:	2202      	movs	r2, #2
     3c0:	739a      	strb	r2, [r3, #14]
     3c2:	68fb      	ldr	r3, [r7, #12]
     3c4:	689b      	ldr	r3, [r3, #8]
     3c6:	68fa      	ldr	r2, [r7, #12]
     3c8:	f102 010c 	add.w	r1, r2, #12
     3cc:	7afa      	ldrb	r2, [r7, #11]
     3ce:	4608      	mov	r0, r1
     3d0:	4611      	mov	r1, r2
     3d2:	687a      	ldr	r2, [r7, #4]
     3d4:	4798      	blx	r3
     3d6:	4603      	mov	r3, r0
     3d8:	617b      	str	r3, [r7, #20]
     3da:	697b      	ldr	r3, [r7, #20]
     3dc:	2b02      	cmp	r3, #2
     3de:	d005      	beq.n	3ec <call_process+0x58>
     3e0:	697b      	ldr	r3, [r7, #20]
     3e2:	2b03      	cmp	r3, #3
     3e4:	d002      	beq.n	3ec <call_process+0x58>
     3e6:	7afb      	ldrb	r3, [r7, #11]
     3e8:	2b83      	cmp	r3, #131	; 0x83
     3ea:	d104      	bne.n	3f6 <call_process+0x62>
     3ec:	68f8      	ldr	r0, [r7, #12]
     3ee:	68f9      	ldr	r1, [r7, #12]
     3f0:	f7ff ff6e 	bl	2d0 <exit_process>
     3f4:	e002      	b.n	3fc <call_process+0x68>
     3f6:	68fb      	ldr	r3, [r7, #12]
     3f8:	2201      	movs	r2, #1
     3fa:	739a      	strb	r2, [r3, #14]
     3fc:	3718      	adds	r7, #24
     3fe:	46bd      	mov	sp, r7
     400:	bd80      	pop	{r7, pc}
     402:	bf00      	nop
     404:	10000118 	.word	0x10000118

00000408 <process_exit>:
     408:	b580      	push	{r7, lr}
     40a:	b082      	sub	sp, #8
     40c:	af00      	add	r7, sp, #0
     40e:	6078      	str	r0, [r7, #4]
     410:	4b04      	ldr	r3, [pc, #16]	; (424 <process_exit+0x1c>)
     412:	681b      	ldr	r3, [r3, #0]
     414:	6878      	ldr	r0, [r7, #4]
     416:	4619      	mov	r1, r3
     418:	f7ff ff5a 	bl	2d0 <exit_process>
     41c:	3708      	adds	r7, #8
     41e:	46bd      	mov	sp, r7
     420:	bd80      	pop	{r7, pc}
     422:	bf00      	nop
     424:	10000118 	.word	0x10000118

00000428 <process_init>:
     428:	b480      	push	{r7}
     42a:	af00      	add	r7, sp, #0
     42c:	4b0a      	ldr	r3, [pc, #40]	; (458 <process_init+0x30>)
     42e:	228a      	movs	r2, #138	; 0x8a
     430:	701a      	strb	r2, [r3, #0]
     432:	4b0a      	ldr	r3, [pc, #40]	; (45c <process_init+0x34>)
     434:	2200      	movs	r2, #0
     436:	701a      	strb	r2, [r3, #0]
     438:	4b08      	ldr	r3, [pc, #32]	; (45c <process_init+0x34>)
     43a:	781a      	ldrb	r2, [r3, #0]
     43c:	4b08      	ldr	r3, [pc, #32]	; (460 <process_init+0x38>)
     43e:	701a      	strb	r2, [r3, #0]
     440:	4b08      	ldr	r3, [pc, #32]	; (464 <process_init+0x3c>)
     442:	2200      	movs	r2, #0
     444:	601a      	str	r2, [r3, #0]
     446:	4b07      	ldr	r3, [pc, #28]	; (464 <process_init+0x3c>)
     448:	681b      	ldr	r3, [r3, #0]
     44a:	4a07      	ldr	r2, [pc, #28]	; (468 <process_init+0x40>)
     44c:	6013      	str	r3, [r2, #0]
     44e:	46bd      	mov	sp, r7
     450:	f85d 7b04 	ldr.w	r7, [sp], #4
     454:	4770      	bx	lr
     456:	bf00      	nop
     458:	1000011c 	.word	0x1000011c
     45c:	1000011e 	.word	0x1000011e
     460:	1000011d 	.word	0x1000011d
     464:	10000114 	.word	0x10000114
     468:	10000118 	.word	0x10000118

0000046c <do_poll>:
     46c:	b580      	push	{r7, lr}
     46e:	b082      	sub	sp, #8
     470:	af00      	add	r7, sp, #0
     472:	4b0f      	ldr	r3, [pc, #60]	; (4b0 <do_poll+0x44>)
     474:	2200      	movs	r2, #0
     476:	701a      	strb	r2, [r3, #0]
     478:	4b0e      	ldr	r3, [pc, #56]	; (4b4 <do_poll+0x48>)
     47a:	681b      	ldr	r3, [r3, #0]
     47c:	607b      	str	r3, [r7, #4]
     47e:	e011      	b.n	4a4 <do_poll+0x38>
     480:	687b      	ldr	r3, [r7, #4]
     482:	7bdb      	ldrb	r3, [r3, #15]
     484:	2b00      	cmp	r3, #0
     486:	d00a      	beq.n	49e <do_poll+0x32>
     488:	687b      	ldr	r3, [r7, #4]
     48a:	2201      	movs	r2, #1
     48c:	739a      	strb	r2, [r3, #14]
     48e:	687b      	ldr	r3, [r7, #4]
     490:	2200      	movs	r2, #0
     492:	73da      	strb	r2, [r3, #15]
     494:	6878      	ldr	r0, [r7, #4]
     496:	2182      	movs	r1, #130	; 0x82
     498:	2200      	movs	r2, #0
     49a:	f7ff ff7b 	bl	394 <call_process>
     49e:	687b      	ldr	r3, [r7, #4]
     4a0:	681b      	ldr	r3, [r3, #0]
     4a2:	607b      	str	r3, [r7, #4]
     4a4:	687b      	ldr	r3, [r7, #4]
     4a6:	2b00      	cmp	r3, #0
     4a8:	d1ea      	bne.n	480 <do_poll+0x14>
     4aa:	3708      	adds	r7, #8
     4ac:	46bd      	mov	sp, r7
     4ae:	bd80      	pop	{r7, pc}
     4b0:	100002a0 	.word	0x100002a0
     4b4:	10000114 	.word	0x10000114

000004b8 <do_event>:
     4b8:	b580      	push	{r7, lr}
     4ba:	af00      	add	r7, sp, #0
     4bc:	4b3a      	ldr	r3, [pc, #232]	; (5a8 <do_event+0xf0>)
     4be:	781b      	ldrb	r3, [r3, #0]
     4c0:	2b00      	cmp	r3, #0
     4c2:	d070      	beq.n	5a6 <do_event+0xee>
     4c4:	4b39      	ldr	r3, [pc, #228]	; (5ac <do_event+0xf4>)
     4c6:	781b      	ldrb	r3, [r3, #0]
     4c8:	4619      	mov	r1, r3
     4ca:	4a39      	ldr	r2, [pc, #228]	; (5b0 <do_event+0xf8>)
     4cc:	460b      	mov	r3, r1
     4ce:	005b      	lsls	r3, r3, #1
     4d0:	440b      	add	r3, r1
     4d2:	009b      	lsls	r3, r3, #2
     4d4:	4413      	add	r3, r2
     4d6:	781a      	ldrb	r2, [r3, #0]
     4d8:	4b36      	ldr	r3, [pc, #216]	; (5b4 <do_event+0xfc>)
     4da:	701a      	strb	r2, [r3, #0]
     4dc:	4b33      	ldr	r3, [pc, #204]	; (5ac <do_event+0xf4>)
     4de:	781b      	ldrb	r3, [r3, #0]
     4e0:	4619      	mov	r1, r3
     4e2:	4a33      	ldr	r2, [pc, #204]	; (5b0 <do_event+0xf8>)
     4e4:	460b      	mov	r3, r1
     4e6:	005b      	lsls	r3, r3, #1
     4e8:	440b      	add	r3, r1
     4ea:	009b      	lsls	r3, r3, #2
     4ec:	4413      	add	r3, r2
     4ee:	685b      	ldr	r3, [r3, #4]
     4f0:	4a31      	ldr	r2, [pc, #196]	; (5b8 <do_event+0x100>)
     4f2:	6013      	str	r3, [r2, #0]
     4f4:	4b2d      	ldr	r3, [pc, #180]	; (5ac <do_event+0xf4>)
     4f6:	781b      	ldrb	r3, [r3, #0]
     4f8:	4619      	mov	r1, r3
     4fa:	4a2d      	ldr	r2, [pc, #180]	; (5b0 <do_event+0xf8>)
     4fc:	460b      	mov	r3, r1
     4fe:	005b      	lsls	r3, r3, #1
     500:	440b      	add	r3, r1
     502:	009b      	lsls	r3, r3, #2
     504:	4413      	add	r3, r2
     506:	3308      	adds	r3, #8
     508:	681b      	ldr	r3, [r3, #0]
     50a:	4a2c      	ldr	r2, [pc, #176]	; (5bc <do_event+0x104>)
     50c:	6013      	str	r3, [r2, #0]
     50e:	4b27      	ldr	r3, [pc, #156]	; (5ac <do_event+0xf4>)
     510:	781b      	ldrb	r3, [r3, #0]
     512:	1c5a      	adds	r2, r3, #1
     514:	4b2a      	ldr	r3, [pc, #168]	; (5c0 <do_event+0x108>)
     516:	4013      	ands	r3, r2
     518:	2b00      	cmp	r3, #0
     51a:	da03      	bge.n	524 <do_event+0x6c>
     51c:	3b01      	subs	r3, #1
     51e:	f063 031f 	orn	r3, r3, #31
     522:	3301      	adds	r3, #1
     524:	b2da      	uxtb	r2, r3
     526:	4b21      	ldr	r3, [pc, #132]	; (5ac <do_event+0xf4>)
     528:	701a      	strb	r2, [r3, #0]
     52a:	4b1f      	ldr	r3, [pc, #124]	; (5a8 <do_event+0xf0>)
     52c:	781b      	ldrb	r3, [r3, #0]
     52e:	3b01      	subs	r3, #1
     530:	b2da      	uxtb	r2, r3
     532:	4b1d      	ldr	r3, [pc, #116]	; (5a8 <do_event+0xf0>)
     534:	701a      	strb	r2, [r3, #0]
     536:	4b21      	ldr	r3, [pc, #132]	; (5bc <do_event+0x104>)
     538:	681b      	ldr	r3, [r3, #0]
     53a:	2b00      	cmp	r3, #0
     53c:	d120      	bne.n	580 <do_event+0xc8>
     53e:	4b21      	ldr	r3, [pc, #132]	; (5c4 <do_event+0x10c>)
     540:	681b      	ldr	r3, [r3, #0]
     542:	4a21      	ldr	r2, [pc, #132]	; (5c8 <do_event+0x110>)
     544:	6013      	str	r3, [r2, #0]
     546:	e016      	b.n	576 <do_event+0xbe>
     548:	4b20      	ldr	r3, [pc, #128]	; (5cc <do_event+0x114>)
     54a:	781b      	ldrb	r3, [r3, #0]
     54c:	b2db      	uxtb	r3, r3
     54e:	2b00      	cmp	r3, #0
     550:	d001      	beq.n	556 <do_event+0x9e>
     552:	f7ff ff8b 	bl	46c <do_poll>
     556:	4b1c      	ldr	r3, [pc, #112]	; (5c8 <do_event+0x110>)
     558:	6819      	ldr	r1, [r3, #0]
     55a:	4b16      	ldr	r3, [pc, #88]	; (5b4 <do_event+0xfc>)
     55c:	781a      	ldrb	r2, [r3, #0]
     55e:	4b16      	ldr	r3, [pc, #88]	; (5b8 <do_event+0x100>)
     560:	681b      	ldr	r3, [r3, #0]
     562:	4608      	mov	r0, r1
     564:	4611      	mov	r1, r2
     566:	461a      	mov	r2, r3
     568:	f7ff ff14 	bl	394 <call_process>
     56c:	4b16      	ldr	r3, [pc, #88]	; (5c8 <do_event+0x110>)
     56e:	681b      	ldr	r3, [r3, #0]
     570:	681b      	ldr	r3, [r3, #0]
     572:	4a15      	ldr	r2, [pc, #84]	; (5c8 <do_event+0x110>)
     574:	6013      	str	r3, [r2, #0]
     576:	4b14      	ldr	r3, [pc, #80]	; (5c8 <do_event+0x110>)
     578:	681b      	ldr	r3, [r3, #0]
     57a:	2b00      	cmp	r3, #0
     57c:	d1e4      	bne.n	548 <do_event+0x90>
     57e:	e012      	b.n	5a6 <do_event+0xee>
     580:	4b0c      	ldr	r3, [pc, #48]	; (5b4 <do_event+0xfc>)
     582:	781b      	ldrb	r3, [r3, #0]
     584:	2b81      	cmp	r3, #129	; 0x81
     586:	d103      	bne.n	590 <do_event+0xd8>
     588:	4b0c      	ldr	r3, [pc, #48]	; (5bc <do_event+0x104>)
     58a:	681b      	ldr	r3, [r3, #0]
     58c:	2201      	movs	r2, #1
     58e:	739a      	strb	r2, [r3, #14]
     590:	4b0a      	ldr	r3, [pc, #40]	; (5bc <do_event+0x104>)
     592:	6819      	ldr	r1, [r3, #0]
     594:	4b07      	ldr	r3, [pc, #28]	; (5b4 <do_event+0xfc>)
     596:	781a      	ldrb	r2, [r3, #0]
     598:	4b07      	ldr	r3, [pc, #28]	; (5b8 <do_event+0x100>)
     59a:	681b      	ldr	r3, [r3, #0]
     59c:	4608      	mov	r0, r1
     59e:	4611      	mov	r1, r2
     5a0:	461a      	mov	r2, r3
     5a2:	f7ff fef7 	bl	394 <call_process>
     5a6:	bd80      	pop	{r7, pc}
     5a8:	1000011d 	.word	0x1000011d
     5ac:	1000011e 	.word	0x1000011e
     5b0:	10000120 	.word	0x10000120
     5b4:	100002a1 	.word	0x100002a1
     5b8:	100002a4 	.word	0x100002a4
     5bc:	100002a8 	.word	0x100002a8
     5c0:	8000001f 	.word	0x8000001f
     5c4:	10000114 	.word	0x10000114
     5c8:	100002ac 	.word	0x100002ac
     5cc:	100002a0 	.word	0x100002a0

000005d0 <process_run>:
     5d0:	b580      	push	{r7, lr}
     5d2:	af00      	add	r7, sp, #0
     5d4:	4b08      	ldr	r3, [pc, #32]	; (5f8 <process_run+0x28>)
     5d6:	781b      	ldrb	r3, [r3, #0]
     5d8:	b2db      	uxtb	r3, r3
     5da:	2b00      	cmp	r3, #0
     5dc:	d001      	beq.n	5e2 <process_run+0x12>
     5de:	f7ff ff45 	bl	46c <do_poll>
     5e2:	f7ff ff69 	bl	4b8 <do_event>
     5e6:	4b05      	ldr	r3, [pc, #20]	; (5fc <process_run+0x2c>)
     5e8:	781b      	ldrb	r3, [r3, #0]
     5ea:	461a      	mov	r2, r3
     5ec:	4b02      	ldr	r3, [pc, #8]	; (5f8 <process_run+0x28>)
     5ee:	781b      	ldrb	r3, [r3, #0]
     5f0:	b2db      	uxtb	r3, r3
     5f2:	4413      	add	r3, r2
     5f4:	4618      	mov	r0, r3
     5f6:	bd80      	pop	{r7, pc}
     5f8:	100002a0 	.word	0x100002a0
     5fc:	1000011d 	.word	0x1000011d

00000600 <process_nevents>:
     600:	b480      	push	{r7}
     602:	af00      	add	r7, sp, #0
     604:	4b05      	ldr	r3, [pc, #20]	; (61c <process_nevents+0x1c>)
     606:	781b      	ldrb	r3, [r3, #0]
     608:	461a      	mov	r2, r3
     60a:	4b05      	ldr	r3, [pc, #20]	; (620 <process_nevents+0x20>)
     60c:	781b      	ldrb	r3, [r3, #0]
     60e:	b2db      	uxtb	r3, r3
     610:	4413      	add	r3, r2
     612:	4618      	mov	r0, r3
     614:	46bd      	mov	sp, r7
     616:	f85d 7b04 	ldr.w	r7, [sp], #4
     61a:	4770      	bx	lr
     61c:	1000011d 	.word	0x1000011d
     620:	100002a0 	.word	0x100002a0

00000624 <process_post>:
     624:	b480      	push	{r7}
     626:	b085      	sub	sp, #20
     628:	af00      	add	r7, sp, #0
     62a:	60f8      	str	r0, [r7, #12]
     62c:	460b      	mov	r3, r1
     62e:	607a      	str	r2, [r7, #4]
     630:	72fb      	strb	r3, [r7, #11]
     632:	4b20      	ldr	r3, [pc, #128]	; (6b4 <process_post+0x90>)
     634:	781b      	ldrb	r3, [r3, #0]
     636:	2b20      	cmp	r3, #32
     638:	d101      	bne.n	63e <process_post+0x1a>
     63a:	2301      	movs	r3, #1
     63c:	e033      	b.n	6a6 <process_post+0x82>
     63e:	4b1e      	ldr	r3, [pc, #120]	; (6b8 <process_post+0x94>)
     640:	781a      	ldrb	r2, [r3, #0]
     642:	4b1c      	ldr	r3, [pc, #112]	; (6b4 <process_post+0x90>)
     644:	781b      	ldrb	r3, [r3, #0]
     646:	4413      	add	r3, r2
     648:	b2db      	uxtb	r3, r3
     64a:	f003 031f 	and.w	r3, r3, #31
     64e:	b2da      	uxtb	r2, r3
     650:	4b1a      	ldr	r3, [pc, #104]	; (6bc <process_post+0x98>)
     652:	701a      	strb	r2, [r3, #0]
     654:	4b19      	ldr	r3, [pc, #100]	; (6bc <process_post+0x98>)
     656:	781b      	ldrb	r3, [r3, #0]
     658:	4619      	mov	r1, r3
     65a:	4a19      	ldr	r2, [pc, #100]	; (6c0 <process_post+0x9c>)
     65c:	460b      	mov	r3, r1
     65e:	005b      	lsls	r3, r3, #1
     660:	440b      	add	r3, r1
     662:	009b      	lsls	r3, r3, #2
     664:	4413      	add	r3, r2
     666:	7afa      	ldrb	r2, [r7, #11]
     668:	701a      	strb	r2, [r3, #0]
     66a:	4b14      	ldr	r3, [pc, #80]	; (6bc <process_post+0x98>)
     66c:	781b      	ldrb	r3, [r3, #0]
     66e:	4619      	mov	r1, r3
     670:	4a13      	ldr	r2, [pc, #76]	; (6c0 <process_post+0x9c>)
     672:	460b      	mov	r3, r1
     674:	005b      	lsls	r3, r3, #1
     676:	440b      	add	r3, r1
     678:	009b      	lsls	r3, r3, #2
     67a:	4413      	add	r3, r2
     67c:	687a      	ldr	r2, [r7, #4]
     67e:	605a      	str	r2, [r3, #4]
     680:	4b0e      	ldr	r3, [pc, #56]	; (6bc <process_post+0x98>)
     682:	781b      	ldrb	r3, [r3, #0]
     684:	4619      	mov	r1, r3
     686:	4a0e      	ldr	r2, [pc, #56]	; (6c0 <process_post+0x9c>)
     688:	460b      	mov	r3, r1
     68a:	005b      	lsls	r3, r3, #1
     68c:	440b      	add	r3, r1
     68e:	009b      	lsls	r3, r3, #2
     690:	4413      	add	r3, r2
     692:	3308      	adds	r3, #8
     694:	68fa      	ldr	r2, [r7, #12]
     696:	601a      	str	r2, [r3, #0]
     698:	4b06      	ldr	r3, [pc, #24]	; (6b4 <process_post+0x90>)
     69a:	781b      	ldrb	r3, [r3, #0]
     69c:	3301      	adds	r3, #1
     69e:	b2da      	uxtb	r2, r3
     6a0:	4b04      	ldr	r3, [pc, #16]	; (6b4 <process_post+0x90>)
     6a2:	701a      	strb	r2, [r3, #0]
     6a4:	2300      	movs	r3, #0
     6a6:	4618      	mov	r0, r3
     6a8:	3714      	adds	r7, #20
     6aa:	46bd      	mov	sp, r7
     6ac:	f85d 7b04 	ldr.w	r7, [sp], #4
     6b0:	4770      	bx	lr
     6b2:	bf00      	nop
     6b4:	1000011d 	.word	0x1000011d
     6b8:	1000011e 	.word	0x1000011e
     6bc:	100002b0 	.word	0x100002b0
     6c0:	10000120 	.word	0x10000120

000006c4 <process_post_synch>:
     6c4:	b580      	push	{r7, lr}
     6c6:	b086      	sub	sp, #24
     6c8:	af00      	add	r7, sp, #0
     6ca:	60f8      	str	r0, [r7, #12]
     6cc:	460b      	mov	r3, r1
     6ce:	607a      	str	r2, [r7, #4]
     6d0:	72fb      	strb	r3, [r7, #11]
     6d2:	4b07      	ldr	r3, [pc, #28]	; (6f0 <process_post_synch+0x2c>)
     6d4:	681b      	ldr	r3, [r3, #0]
     6d6:	617b      	str	r3, [r7, #20]
     6d8:	7afb      	ldrb	r3, [r7, #11]
     6da:	68f8      	ldr	r0, [r7, #12]
     6dc:	4619      	mov	r1, r3
     6de:	687a      	ldr	r2, [r7, #4]
     6e0:	f7ff fe58 	bl	394 <call_process>
     6e4:	4a02      	ldr	r2, [pc, #8]	; (6f0 <process_post_synch+0x2c>)
     6e6:	697b      	ldr	r3, [r7, #20]
     6e8:	6013      	str	r3, [r2, #0]
     6ea:	3718      	adds	r7, #24
     6ec:	46bd      	mov	sp, r7
     6ee:	bd80      	pop	{r7, pc}
     6f0:	10000118 	.word	0x10000118

000006f4 <process_poll>:
     6f4:	b480      	push	{r7}
     6f6:	b083      	sub	sp, #12
     6f8:	af00      	add	r7, sp, #0
     6fa:	6078      	str	r0, [r7, #4]
     6fc:	687b      	ldr	r3, [r7, #4]
     6fe:	2b00      	cmp	r3, #0
     700:	d00d      	beq.n	71e <process_poll+0x2a>
     702:	687b      	ldr	r3, [r7, #4]
     704:	7b9b      	ldrb	r3, [r3, #14]
     706:	2b01      	cmp	r3, #1
     708:	d003      	beq.n	712 <process_poll+0x1e>
     70a:	687b      	ldr	r3, [r7, #4]
     70c:	7b9b      	ldrb	r3, [r3, #14]
     70e:	2b02      	cmp	r3, #2
     710:	d105      	bne.n	71e <process_poll+0x2a>
     712:	687b      	ldr	r3, [r7, #4]
     714:	2201      	movs	r2, #1
     716:	73da      	strb	r2, [r3, #15]
     718:	4b03      	ldr	r3, [pc, #12]	; (728 <process_poll+0x34>)
     71a:	2201      	movs	r2, #1
     71c:	701a      	strb	r2, [r3, #0]
     71e:	370c      	adds	r7, #12
     720:	46bd      	mov	sp, r7
     722:	f85d 7b04 	ldr.w	r7, [sp], #4
     726:	4770      	bx	lr
     728:	100002a0 	.word	0x100002a0

0000072c <process_is_running>:
     72c:	b480      	push	{r7}
     72e:	b083      	sub	sp, #12
     730:	af00      	add	r7, sp, #0
     732:	6078      	str	r0, [r7, #4]
     734:	687b      	ldr	r3, [r7, #4]
     736:	7b9b      	ldrb	r3, [r3, #14]
     738:	2b00      	cmp	r3, #0
     73a:	bf14      	ite	ne
     73c:	2301      	movne	r3, #1
     73e:	2300      	moveq	r3, #0
     740:	b2db      	uxtb	r3, r3
     742:	4618      	mov	r0, r3
     744:	370c      	adds	r7, #12
     746:	46bd      	mov	sp, r7
     748:	f85d 7b04 	ldr.w	r7, [sp], #4
     74c:	4770      	bx	lr
     74e:	bf00      	nop

00000750 <autostart_start>:
     750:	b580      	push	{r7, lr}
     752:	b084      	sub	sp, #16
     754:	af00      	add	r7, sp, #0
     756:	6078      	str	r0, [r7, #4]
     758:	2300      	movs	r3, #0
     75a:	60fb      	str	r3, [r7, #12]
     75c:	e00b      	b.n	776 <autostart_start+0x26>
     75e:	68fb      	ldr	r3, [r7, #12]
     760:	009b      	lsls	r3, r3, #2
     762:	687a      	ldr	r2, [r7, #4]
     764:	4413      	add	r3, r2
     766:	681b      	ldr	r3, [r3, #0]
     768:	4618      	mov	r0, r3
     76a:	2100      	movs	r1, #0
     76c:	f7ff fd80 	bl	270 <process_start>
     770:	68fb      	ldr	r3, [r7, #12]
     772:	3301      	adds	r3, #1
     774:	60fb      	str	r3, [r7, #12]
     776:	68fb      	ldr	r3, [r7, #12]
     778:	009b      	lsls	r3, r3, #2
     77a:	687a      	ldr	r2, [r7, #4]
     77c:	4413      	add	r3, r2
     77e:	681b      	ldr	r3, [r3, #0]
     780:	2b00      	cmp	r3, #0
     782:	d1ec      	bne.n	75e <autostart_start+0xe>
     784:	3710      	adds	r7, #16
     786:	46bd      	mov	sp, r7
     788:	bd80      	pop	{r7, pc}
     78a:	bf00      	nop

0000078c <autostart_exit>:
     78c:	b580      	push	{r7, lr}
     78e:	b084      	sub	sp, #16
     790:	af00      	add	r7, sp, #0
     792:	6078      	str	r0, [r7, #4]
     794:	2300      	movs	r3, #0
     796:	60fb      	str	r3, [r7, #12]
     798:	e00a      	b.n	7b0 <autostart_exit+0x24>
     79a:	68fb      	ldr	r3, [r7, #12]
     79c:	009b      	lsls	r3, r3, #2
     79e:	687a      	ldr	r2, [r7, #4]
     7a0:	4413      	add	r3, r2
     7a2:	681b      	ldr	r3, [r3, #0]
     7a4:	4618      	mov	r0, r3
     7a6:	f7ff fe2f 	bl	408 <process_exit>
     7aa:	68fb      	ldr	r3, [r7, #12]
     7ac:	3301      	adds	r3, #1
     7ae:	60fb      	str	r3, [r7, #12]
     7b0:	68fb      	ldr	r3, [r7, #12]
     7b2:	009b      	lsls	r3, r3, #2
     7b4:	687a      	ldr	r2, [r7, #4]
     7b6:	4413      	add	r3, r2
     7b8:	681b      	ldr	r3, [r3, #0]
     7ba:	2b00      	cmp	r3, #0
     7bc:	d1ed      	bne.n	79a <autostart_exit+0xe>
     7be:	3710      	adds	r7, #16
     7c0:	46bd      	mov	sp, r7
     7c2:	bd80      	pop	{r7, pc}

000007c4 <update_time>:
     7c4:	b580      	push	{r7, lr}
     7c6:	b084      	sub	sp, #16
     7c8:	af00      	add	r7, sp, #0
     7ca:	4b1d      	ldr	r3, [pc, #116]	; (840 <update_time+0x7c>)
     7cc:	681b      	ldr	r3, [r3, #0]
     7ce:	2b00      	cmp	r3, #0
     7d0:	d103      	bne.n	7da <update_time+0x16>
     7d2:	4b1c      	ldr	r3, [pc, #112]	; (844 <update_time+0x80>)
     7d4:	2200      	movs	r2, #0
     7d6:	601a      	str	r2, [r3, #0]
     7d8:	e02e      	b.n	838 <update_time+0x74>
     7da:	f000 fb41 	bl	e60 <clock_time>
     7de:	6078      	str	r0, [r7, #4]
     7e0:	4b17      	ldr	r3, [pc, #92]	; (840 <update_time+0x7c>)
     7e2:	681b      	ldr	r3, [r3, #0]
     7e4:	60bb      	str	r3, [r7, #8]
     7e6:	68bb      	ldr	r3, [r7, #8]
     7e8:	681a      	ldr	r2, [r3, #0]
     7ea:	68bb      	ldr	r3, [r7, #8]
     7ec:	685b      	ldr	r3, [r3, #4]
     7ee:	441a      	add	r2, r3
     7f0:	687b      	ldr	r3, [r7, #4]
     7f2:	1ad3      	subs	r3, r2, r3
     7f4:	60fb      	str	r3, [r7, #12]
     7f6:	68bb      	ldr	r3, [r7, #8]
     7f8:	689b      	ldr	r3, [r3, #8]
     7fa:	60bb      	str	r3, [r7, #8]
     7fc:	e014      	b.n	828 <update_time+0x64>
     7fe:	68bb      	ldr	r3, [r7, #8]
     800:	681a      	ldr	r2, [r3, #0]
     802:	68bb      	ldr	r3, [r7, #8]
     804:	685b      	ldr	r3, [r3, #4]
     806:	441a      	add	r2, r3
     808:	687b      	ldr	r3, [r7, #4]
     80a:	1ad2      	subs	r2, r2, r3
     80c:	68fb      	ldr	r3, [r7, #12]
     80e:	429a      	cmp	r2, r3
     810:	d207      	bcs.n	822 <update_time+0x5e>
     812:	68bb      	ldr	r3, [r7, #8]
     814:	681a      	ldr	r2, [r3, #0]
     816:	68bb      	ldr	r3, [r7, #8]
     818:	685b      	ldr	r3, [r3, #4]
     81a:	441a      	add	r2, r3
     81c:	687b      	ldr	r3, [r7, #4]
     81e:	1ad3      	subs	r3, r2, r3
     820:	60fb      	str	r3, [r7, #12]
     822:	68bb      	ldr	r3, [r7, #8]
     824:	689b      	ldr	r3, [r3, #8]
     826:	60bb      	str	r3, [r7, #8]
     828:	68bb      	ldr	r3, [r7, #8]
     82a:	2b00      	cmp	r3, #0
     82c:	d1e7      	bne.n	7fe <update_time+0x3a>
     82e:	687a      	ldr	r2, [r7, #4]
     830:	68fb      	ldr	r3, [r7, #12]
     832:	4413      	add	r3, r2
     834:	4a03      	ldr	r2, [pc, #12]	; (844 <update_time+0x80>)
     836:	6013      	str	r3, [r2, #0]
     838:	3710      	adds	r7, #16
     83a:	46bd      	mov	sp, r7
     83c:	bd80      	pop	{r7, pc}
     83e:	bf00      	nop
     840:	100002b4 	.word	0x100002b4
     844:	100002b8 	.word	0x100002b8

00000848 <process_thread_etimer_process>:
     848:	b580      	push	{r7, lr}
     84a:	b088      	sub	sp, #32
     84c:	af00      	add	r7, sp, #0
     84e:	60f8      	str	r0, [r7, #12]
     850:	460b      	mov	r3, r1
     852:	607a      	str	r2, [r7, #4]
     854:	72fb      	strb	r3, [r7, #11]
     856:	2301      	movs	r3, #1
     858:	75fb      	strb	r3, [r7, #23]
     85a:	68fb      	ldr	r3, [r7, #12]
     85c:	881b      	ldrh	r3, [r3, #0]
     85e:	2b00      	cmp	r3, #0
     860:	d002      	beq.n	868 <process_thread_etimer_process+0x20>
     862:	2b59      	cmp	r3, #89	; 0x59
     864:	d008      	beq.n	878 <process_thread_etimer_process+0x30>
     866:	e078      	b.n	95a <process_thread_etimer_process+0x112>
     868:	4b41      	ldr	r3, [pc, #260]	; (970 <process_thread_etimer_process+0x128>)
     86a:	2200      	movs	r2, #0
     86c:	601a      	str	r2, [r3, #0]
     86e:	2300      	movs	r3, #0
     870:	75fb      	strb	r3, [r7, #23]
     872:	68fb      	ldr	r3, [r7, #12]
     874:	2259      	movs	r2, #89	; 0x59
     876:	801a      	strh	r2, [r3, #0]
     878:	7dfb      	ldrb	r3, [r7, #23]
     87a:	2b00      	cmp	r3, #0
     87c:	d101      	bne.n	882 <process_thread_etimer_process+0x3a>
     87e:	2301      	movs	r3, #1
     880:	e071      	b.n	966 <process_thread_etimer_process+0x11e>
     882:	7afb      	ldrb	r3, [r7, #11]
     884:	2b87      	cmp	r3, #135	; 0x87
     886:	d12d      	bne.n	8e4 <process_thread_etimer_process+0x9c>
     888:	687b      	ldr	r3, [r7, #4]
     88a:	613b      	str	r3, [r7, #16]
     88c:	e004      	b.n	898 <process_thread_etimer_process+0x50>
     88e:	4b38      	ldr	r3, [pc, #224]	; (970 <process_thread_etimer_process+0x128>)
     890:	681b      	ldr	r3, [r3, #0]
     892:	689b      	ldr	r3, [r3, #8]
     894:	4a36      	ldr	r2, [pc, #216]	; (970 <process_thread_etimer_process+0x128>)
     896:	6013      	str	r3, [r2, #0]
     898:	4b35      	ldr	r3, [pc, #212]	; (970 <process_thread_etimer_process+0x128>)
     89a:	681b      	ldr	r3, [r3, #0]
     89c:	2b00      	cmp	r3, #0
     89e:	d005      	beq.n	8ac <process_thread_etimer_process+0x64>
     8a0:	4b33      	ldr	r3, [pc, #204]	; (970 <process_thread_etimer_process+0x128>)
     8a2:	681b      	ldr	r3, [r3, #0]
     8a4:	68da      	ldr	r2, [r3, #12]
     8a6:	693b      	ldr	r3, [r7, #16]
     8a8:	429a      	cmp	r2, r3
     8aa:	d0f0      	beq.n	88e <process_thread_etimer_process+0x46>
     8ac:	4b30      	ldr	r3, [pc, #192]	; (970 <process_thread_etimer_process+0x128>)
     8ae:	681b      	ldr	r3, [r3, #0]
     8b0:	2b00      	cmp	r3, #0
     8b2:	d016      	beq.n	8e2 <process_thread_etimer_process+0x9a>
     8b4:	4b2e      	ldr	r3, [pc, #184]	; (970 <process_thread_etimer_process+0x128>)
     8b6:	681b      	ldr	r3, [r3, #0]
     8b8:	61fb      	str	r3, [r7, #28]
     8ba:	e00e      	b.n	8da <process_thread_etimer_process+0x92>
     8bc:	69fb      	ldr	r3, [r7, #28]
     8be:	689b      	ldr	r3, [r3, #8]
     8c0:	68da      	ldr	r2, [r3, #12]
     8c2:	693b      	ldr	r3, [r7, #16]
     8c4:	429a      	cmp	r2, r3
     8c6:	d105      	bne.n	8d4 <process_thread_etimer_process+0x8c>
     8c8:	69fb      	ldr	r3, [r7, #28]
     8ca:	689b      	ldr	r3, [r3, #8]
     8cc:	689a      	ldr	r2, [r3, #8]
     8ce:	69fb      	ldr	r3, [r7, #28]
     8d0:	609a      	str	r2, [r3, #8]
     8d2:	e002      	b.n	8da <process_thread_etimer_process+0x92>
     8d4:	69fb      	ldr	r3, [r7, #28]
     8d6:	689b      	ldr	r3, [r3, #8]
     8d8:	61fb      	str	r3, [r7, #28]
     8da:	69fb      	ldr	r3, [r7, #28]
     8dc:	689b      	ldr	r3, [r3, #8]
     8de:	2b00      	cmp	r3, #0
     8e0:	d1ec      	bne.n	8bc <process_thread_etimer_process+0x74>
     8e2:	e039      	b.n	958 <process_thread_etimer_process+0x110>
     8e4:	7afb      	ldrb	r3, [r7, #11]
     8e6:	2b82      	cmp	r3, #130	; 0x82
     8e8:	d000      	beq.n	8ec <process_thread_etimer_process+0xa4>
     8ea:	e035      	b.n	958 <process_thread_etimer_process+0x110>
     8ec:	2300      	movs	r3, #0
     8ee:	61bb      	str	r3, [r7, #24]
     8f0:	4b1f      	ldr	r3, [pc, #124]	; (970 <process_thread_etimer_process+0x128>)
     8f2:	681b      	ldr	r3, [r3, #0]
     8f4:	61fb      	str	r3, [r7, #28]
     8f6:	e02c      	b.n	952 <process_thread_etimer_process+0x10a>
     8f8:	69fb      	ldr	r3, [r7, #28]
     8fa:	4618      	mov	r0, r3
     8fc:	f001 fafa 	bl	1ef4 <timer_expired>
     900:	4603      	mov	r3, r0
     902:	2b00      	cmp	r3, #0
     904:	d020      	beq.n	948 <process_thread_etimer_process+0x100>
     906:	69fb      	ldr	r3, [r7, #28]
     908:	68db      	ldr	r3, [r3, #12]
     90a:	4618      	mov	r0, r3
     90c:	2188      	movs	r1, #136	; 0x88
     90e:	69fa      	ldr	r2, [r7, #28]
     910:	f7ff fe88 	bl	624 <process_post>
     914:	4603      	mov	r3, r0
     916:	2b00      	cmp	r3, #0
     918:	d114      	bne.n	944 <process_thread_etimer_process+0xfc>
     91a:	69fb      	ldr	r3, [r7, #28]
     91c:	2200      	movs	r2, #0
     91e:	60da      	str	r2, [r3, #12]
     920:	69bb      	ldr	r3, [r7, #24]
     922:	2b00      	cmp	r3, #0
     924:	d004      	beq.n	930 <process_thread_etimer_process+0xe8>
     926:	69fb      	ldr	r3, [r7, #28]
     928:	689a      	ldr	r2, [r3, #8]
     92a:	69bb      	ldr	r3, [r7, #24]
     92c:	609a      	str	r2, [r3, #8]
     92e:	e003      	b.n	938 <process_thread_etimer_process+0xf0>
     930:	69fb      	ldr	r3, [r7, #28]
     932:	689b      	ldr	r3, [r3, #8]
     934:	4a0e      	ldr	r2, [pc, #56]	; (970 <process_thread_etimer_process+0x128>)
     936:	6013      	str	r3, [r2, #0]
     938:	69fb      	ldr	r3, [r7, #28]
     93a:	2200      	movs	r2, #0
     93c:	609a      	str	r2, [r3, #8]
     93e:	f7ff ff41 	bl	7c4 <update_time>
     942:	e7d3      	b.n	8ec <process_thread_etimer_process+0xa4>
     944:	f000 f816 	bl	974 <etimer_request_poll>
     948:	69fb      	ldr	r3, [r7, #28]
     94a:	61bb      	str	r3, [r7, #24]
     94c:	69fb      	ldr	r3, [r7, #28]
     94e:	689b      	ldr	r3, [r3, #8]
     950:	61fb      	str	r3, [r7, #28]
     952:	69fb      	ldr	r3, [r7, #28]
     954:	2b00      	cmp	r3, #0
     956:	d1cf      	bne.n	8f8 <process_thread_etimer_process+0xb0>
     958:	e789      	b.n	86e <process_thread_etimer_process+0x26>
     95a:	2300      	movs	r3, #0
     95c:	75fb      	strb	r3, [r7, #23]
     95e:	68fb      	ldr	r3, [r7, #12]
     960:	2200      	movs	r2, #0
     962:	801a      	strh	r2, [r3, #0]
     964:	2303      	movs	r3, #3
     966:	4618      	mov	r0, r3
     968:	3720      	adds	r7, #32
     96a:	46bd      	mov	sp, r7
     96c:	bd80      	pop	{r7, pc}
     96e:	bf00      	nop
     970:	100002b4 	.word	0x100002b4

00000974 <etimer_request_poll>:
     974:	b580      	push	{r7, lr}
     976:	af00      	add	r7, sp, #0
     978:	4801      	ldr	r0, [pc, #4]	; (980 <etimer_request_poll+0xc>)
     97a:	f7ff febb 	bl	6f4 <process_poll>
     97e:	bd80      	pop	{r7, pc}
     980:	10000460 	.word	0x10000460

00000984 <add_timer>:
     984:	b580      	push	{r7, lr}
     986:	b084      	sub	sp, #16
     988:	af00      	add	r7, sp, #0
     98a:	6078      	str	r0, [r7, #4]
     98c:	f7ff fff2 	bl	974 <etimer_request_poll>
     990:	687b      	ldr	r3, [r7, #4]
     992:	68db      	ldr	r3, [r3, #12]
     994:	2b00      	cmp	r3, #0
     996:	d014      	beq.n	9c2 <add_timer+0x3e>
     998:	4b12      	ldr	r3, [pc, #72]	; (9e4 <add_timer+0x60>)
     99a:	681b      	ldr	r3, [r3, #0]
     99c:	60fb      	str	r3, [r7, #12]
     99e:	e00d      	b.n	9bc <add_timer+0x38>
     9a0:	68fa      	ldr	r2, [r7, #12]
     9a2:	687b      	ldr	r3, [r7, #4]
     9a4:	429a      	cmp	r2, r3
     9a6:	d106      	bne.n	9b6 <add_timer+0x32>
     9a8:	4b0f      	ldr	r3, [pc, #60]	; (9e8 <add_timer+0x64>)
     9aa:	681a      	ldr	r2, [r3, #0]
     9ac:	687b      	ldr	r3, [r7, #4]
     9ae:	60da      	str	r2, [r3, #12]
     9b0:	f7ff ff08 	bl	7c4 <update_time>
     9b4:	e012      	b.n	9dc <add_timer+0x58>
     9b6:	68fb      	ldr	r3, [r7, #12]
     9b8:	689b      	ldr	r3, [r3, #8]
     9ba:	60fb      	str	r3, [r7, #12]
     9bc:	68fb      	ldr	r3, [r7, #12]
     9be:	2b00      	cmp	r3, #0
     9c0:	d1ee      	bne.n	9a0 <add_timer+0x1c>
     9c2:	4b09      	ldr	r3, [pc, #36]	; (9e8 <add_timer+0x64>)
     9c4:	681a      	ldr	r2, [r3, #0]
     9c6:	687b      	ldr	r3, [r7, #4]
     9c8:	60da      	str	r2, [r3, #12]
     9ca:	4b06      	ldr	r3, [pc, #24]	; (9e4 <add_timer+0x60>)
     9cc:	681a      	ldr	r2, [r3, #0]
     9ce:	687b      	ldr	r3, [r7, #4]
     9d0:	609a      	str	r2, [r3, #8]
     9d2:	4a04      	ldr	r2, [pc, #16]	; (9e4 <add_timer+0x60>)
     9d4:	687b      	ldr	r3, [r7, #4]
     9d6:	6013      	str	r3, [r2, #0]
     9d8:	f7ff fef4 	bl	7c4 <update_time>
     9dc:	3710      	adds	r7, #16
     9de:	46bd      	mov	sp, r7
     9e0:	bd80      	pop	{r7, pc}
     9e2:	bf00      	nop
     9e4:	100002b4 	.word	0x100002b4
     9e8:	10000118 	.word	0x10000118

000009ec <etimer_set>:
     9ec:	b580      	push	{r7, lr}
     9ee:	b082      	sub	sp, #8
     9f0:	af00      	add	r7, sp, #0
     9f2:	6078      	str	r0, [r7, #4]
     9f4:	6039      	str	r1, [r7, #0]
     9f6:	687b      	ldr	r3, [r7, #4]
     9f8:	4618      	mov	r0, r3
     9fa:	6839      	ldr	r1, [r7, #0]
     9fc:	f001 fa4e 	bl	1e9c <timer_set>
     a00:	6878      	ldr	r0, [r7, #4]
     a02:	f7ff ffbf 	bl	984 <add_timer>
     a06:	3708      	adds	r7, #8
     a08:	46bd      	mov	sp, r7
     a0a:	bd80      	pop	{r7, pc}

00000a0c <etimer_reset>:
     a0c:	b580      	push	{r7, lr}
     a0e:	b082      	sub	sp, #8
     a10:	af00      	add	r7, sp, #0
     a12:	6078      	str	r0, [r7, #4]
     a14:	687b      	ldr	r3, [r7, #4]
     a16:	4618      	mov	r0, r3
     a18:	f001 fa50 	bl	1ebc <timer_reset>
     a1c:	6878      	ldr	r0, [r7, #4]
     a1e:	f7ff ffb1 	bl	984 <add_timer>
     a22:	3708      	adds	r7, #8
     a24:	46bd      	mov	sp, r7
     a26:	bd80      	pop	{r7, pc}

00000a28 <etimer_restart>:
     a28:	b580      	push	{r7, lr}
     a2a:	b082      	sub	sp, #8
     a2c:	af00      	add	r7, sp, #0
     a2e:	6078      	str	r0, [r7, #4]
     a30:	687b      	ldr	r3, [r7, #4]
     a32:	4618      	mov	r0, r3
     a34:	f001 fa52 	bl	1edc <timer_restart>
     a38:	6878      	ldr	r0, [r7, #4]
     a3a:	f7ff ffa3 	bl	984 <add_timer>
     a3e:	3708      	adds	r7, #8
     a40:	46bd      	mov	sp, r7
     a42:	bd80      	pop	{r7, pc}

00000a44 <etimer_adjust>:
     a44:	b580      	push	{r7, lr}
     a46:	b082      	sub	sp, #8
     a48:	af00      	add	r7, sp, #0
     a4a:	6078      	str	r0, [r7, #4]
     a4c:	6039      	str	r1, [r7, #0]
     a4e:	687b      	ldr	r3, [r7, #4]
     a50:	681a      	ldr	r2, [r3, #0]
     a52:	683b      	ldr	r3, [r7, #0]
     a54:	441a      	add	r2, r3
     a56:	687b      	ldr	r3, [r7, #4]
     a58:	601a      	str	r2, [r3, #0]
     a5a:	f7ff feb3 	bl	7c4 <update_time>
     a5e:	3708      	adds	r7, #8
     a60:	46bd      	mov	sp, r7
     a62:	bd80      	pop	{r7, pc}

00000a64 <etimer_expired>:
     a64:	b480      	push	{r7}
     a66:	b083      	sub	sp, #12
     a68:	af00      	add	r7, sp, #0
     a6a:	6078      	str	r0, [r7, #4]
     a6c:	687b      	ldr	r3, [r7, #4]
     a6e:	68db      	ldr	r3, [r3, #12]
     a70:	2b00      	cmp	r3, #0
     a72:	bf0c      	ite	eq
     a74:	2301      	moveq	r3, #1
     a76:	2300      	movne	r3, #0
     a78:	b2db      	uxtb	r3, r3
     a7a:	4618      	mov	r0, r3
     a7c:	370c      	adds	r7, #12
     a7e:	46bd      	mov	sp, r7
     a80:	f85d 7b04 	ldr.w	r7, [sp], #4
     a84:	4770      	bx	lr
     a86:	bf00      	nop

00000a88 <etimer_expiration_time>:
     a88:	b480      	push	{r7}
     a8a:	b083      	sub	sp, #12
     a8c:	af00      	add	r7, sp, #0
     a8e:	6078      	str	r0, [r7, #4]
     a90:	687b      	ldr	r3, [r7, #4]
     a92:	681a      	ldr	r2, [r3, #0]
     a94:	687b      	ldr	r3, [r7, #4]
     a96:	685b      	ldr	r3, [r3, #4]
     a98:	4413      	add	r3, r2
     a9a:	4618      	mov	r0, r3
     a9c:	370c      	adds	r7, #12
     a9e:	46bd      	mov	sp, r7
     aa0:	f85d 7b04 	ldr.w	r7, [sp], #4
     aa4:	4770      	bx	lr
     aa6:	bf00      	nop

00000aa8 <etimer_start_time>:
     aa8:	b480      	push	{r7}
     aaa:	b083      	sub	sp, #12
     aac:	af00      	add	r7, sp, #0
     aae:	6078      	str	r0, [r7, #4]
     ab0:	687b      	ldr	r3, [r7, #4]
     ab2:	681b      	ldr	r3, [r3, #0]
     ab4:	4618      	mov	r0, r3
     ab6:	370c      	adds	r7, #12
     ab8:	46bd      	mov	sp, r7
     aba:	f85d 7b04 	ldr.w	r7, [sp], #4
     abe:	4770      	bx	lr

00000ac0 <etimer_pending>:
     ac0:	b480      	push	{r7}
     ac2:	af00      	add	r7, sp, #0
     ac4:	4b05      	ldr	r3, [pc, #20]	; (adc <etimer_pending+0x1c>)
     ac6:	681b      	ldr	r3, [r3, #0]
     ac8:	2b00      	cmp	r3, #0
     aca:	bf14      	ite	ne
     acc:	2301      	movne	r3, #1
     ace:	2300      	moveq	r3, #0
     ad0:	b2db      	uxtb	r3, r3
     ad2:	4618      	mov	r0, r3
     ad4:	46bd      	mov	sp, r7
     ad6:	f85d 7b04 	ldr.w	r7, [sp], #4
     ada:	4770      	bx	lr
     adc:	100002b4 	.word	0x100002b4

00000ae0 <etimer_next_expiration_time>:
     ae0:	b580      	push	{r7, lr}
     ae2:	af00      	add	r7, sp, #0
     ae4:	f7ff ffec 	bl	ac0 <etimer_pending>
     ae8:	4603      	mov	r3, r0
     aea:	2b00      	cmp	r3, #0
     aec:	d002      	beq.n	af4 <etimer_next_expiration_time+0x14>
     aee:	4b03      	ldr	r3, [pc, #12]	; (afc <etimer_next_expiration_time+0x1c>)
     af0:	681b      	ldr	r3, [r3, #0]
     af2:	e000      	b.n	af6 <etimer_next_expiration_time+0x16>
     af4:	2300      	movs	r3, #0
     af6:	4618      	mov	r0, r3
     af8:	bd80      	pop	{r7, pc}
     afa:	bf00      	nop
     afc:	100002b8 	.word	0x100002b8

00000b00 <etimer_stop>:
     b00:	b580      	push	{r7, lr}
     b02:	b084      	sub	sp, #16
     b04:	af00      	add	r7, sp, #0
     b06:	6078      	str	r0, [r7, #4]
     b08:	4b16      	ldr	r3, [pc, #88]	; (b64 <etimer_stop+0x64>)
     b0a:	681b      	ldr	r3, [r3, #0]
     b0c:	687a      	ldr	r2, [r7, #4]
     b0e:	429a      	cmp	r2, r3
     b10:	d107      	bne.n	b22 <etimer_stop+0x22>
     b12:	4b14      	ldr	r3, [pc, #80]	; (b64 <etimer_stop+0x64>)
     b14:	681b      	ldr	r3, [r3, #0]
     b16:	689b      	ldr	r3, [r3, #8]
     b18:	4a12      	ldr	r2, [pc, #72]	; (b64 <etimer_stop+0x64>)
     b1a:	6013      	str	r3, [r2, #0]
     b1c:	f7ff fe52 	bl	7c4 <update_time>
     b20:	e017      	b.n	b52 <etimer_stop+0x52>
     b22:	4b10      	ldr	r3, [pc, #64]	; (b64 <etimer_stop+0x64>)
     b24:	681b      	ldr	r3, [r3, #0]
     b26:	60fb      	str	r3, [r7, #12]
     b28:	e002      	b.n	b30 <etimer_stop+0x30>
     b2a:	68fb      	ldr	r3, [r7, #12]
     b2c:	689b      	ldr	r3, [r3, #8]
     b2e:	60fb      	str	r3, [r7, #12]
     b30:	68fb      	ldr	r3, [r7, #12]
     b32:	2b00      	cmp	r3, #0
     b34:	d004      	beq.n	b40 <etimer_stop+0x40>
     b36:	68fb      	ldr	r3, [r7, #12]
     b38:	689a      	ldr	r2, [r3, #8]
     b3a:	687b      	ldr	r3, [r7, #4]
     b3c:	429a      	cmp	r2, r3
     b3e:	d1f4      	bne.n	b2a <etimer_stop+0x2a>
     b40:	68fb      	ldr	r3, [r7, #12]
     b42:	2b00      	cmp	r3, #0
     b44:	d005      	beq.n	b52 <etimer_stop+0x52>
     b46:	687b      	ldr	r3, [r7, #4]
     b48:	689a      	ldr	r2, [r3, #8]
     b4a:	68fb      	ldr	r3, [r7, #12]
     b4c:	609a      	str	r2, [r3, #8]
     b4e:	f7ff fe39 	bl	7c4 <update_time>
     b52:	687b      	ldr	r3, [r7, #4]
     b54:	2200      	movs	r2, #0
     b56:	609a      	str	r2, [r3, #8]
     b58:	687b      	ldr	r3, [r7, #4]
     b5a:	2200      	movs	r2, #0
     b5c:	60da      	str	r2, [r3, #12]
     b5e:	3710      	adds	r7, #16
     b60:	46bd      	mov	sp, r7
     b62:	bd80      	pop	{r7, pc}
     b64:	100002b4 	.word	0x100002b4

00000b68 <show_leds>:
     b68:	b580      	push	{r7, lr}
     b6a:	b082      	sub	sp, #8
     b6c:	af00      	add	r7, sp, #0
     b6e:	4603      	mov	r3, r0
     b70:	71fb      	strb	r3, [r7, #7]
     b72:	79fb      	ldrb	r3, [r7, #7]
     b74:	f003 0301 	and.w	r3, r3, #1
     b78:	2b00      	cmp	r3, #0
     b7a:	79fb      	ldrb	r3, [r7, #7]
     b7c:	f003 0302 	and.w	r3, r3, #2
     b80:	2b00      	cmp	r3, #0
     b82:	79fb      	ldrb	r3, [r7, #7]
     b84:	f003 0304 	and.w	r3, r3, #4
     b88:	2b00      	cmp	r3, #0
     b8a:	4b06      	ldr	r3, [pc, #24]	; (ba4 <show_leds+0x3c>)
     b8c:	781a      	ldrb	r2, [r3, #0]
     b8e:	4b06      	ldr	r3, [pc, #24]	; (ba8 <show_leds+0x40>)
     b90:	781b      	ldrb	r3, [r3, #0]
     b92:	4053      	eors	r3, r2
     b94:	b2db      	uxtb	r3, r3
     b96:	4618      	mov	r0, r3
     b98:	f000 f8cc 	bl	d34 <leds_arch_set>
     b9c:	3708      	adds	r7, #8
     b9e:	46bd      	mov	sp, r7
     ba0:	bd80      	pop	{r7, pc}
     ba2:	bf00      	nop
     ba4:	100002bc 	.word	0x100002bc
     ba8:	100002bd 	.word	0x100002bd

00000bac <leds_init>:
     bac:	b580      	push	{r7, lr}
     bae:	af00      	add	r7, sp, #0
     bb0:	f000 f894 	bl	cdc <leds_arch_init>
     bb4:	4b05      	ldr	r3, [pc, #20]	; (bcc <leds_init+0x20>)
     bb6:	2200      	movs	r2, #0
     bb8:	701a      	strb	r2, [r3, #0]
     bba:	4b04      	ldr	r3, [pc, #16]	; (bcc <leds_init+0x20>)
     bbc:	781a      	ldrb	r2, [r3, #0]
     bbe:	4b04      	ldr	r3, [pc, #16]	; (bd0 <leds_init+0x24>)
     bc0:	701a      	strb	r2, [r3, #0]
     bc2:	f000 f807 	bl	bd4 <leds_blink>
     bc6:	f000 f805 	bl	bd4 <leds_blink>
     bca:	bd80      	pop	{r7, pc}
     bcc:	100002bd 	.word	0x100002bd
     bd0:	100002bc 	.word	0x100002bc

00000bd4 <leds_blink>:
     bd4:	b580      	push	{r7, lr}
     bd6:	b082      	sub	sp, #8
     bd8:	af00      	add	r7, sp, #0
     bda:	4b0b      	ldr	r3, [pc, #44]	; (c08 <leds_blink+0x34>)
     bdc:	781a      	ldrb	r2, [r3, #0]
     bde:	4b0b      	ldr	r3, [pc, #44]	; (c0c <leds_blink+0x38>)
     be0:	781b      	ldrb	r3, [r3, #0]
     be2:	4053      	eors	r3, r2
     be4:	b2db      	uxtb	r3, r3
     be6:	43db      	mvns	r3, r3
     be8:	71fb      	strb	r3, [r7, #7]
     bea:	79fb      	ldrb	r3, [r7, #7]
     bec:	4618      	mov	r0, r3
     bee:	f000 f85f 	bl	cb0 <leds_invert>
     bf2:	f44f 70c8 	mov.w	r0, #400	; 0x190
     bf6:	f000 f9af 	bl	f58 <clock_delay>
     bfa:	79fb      	ldrb	r3, [r7, #7]
     bfc:	4618      	mov	r0, r3
     bfe:	f000 f857 	bl	cb0 <leds_invert>
     c02:	3708      	adds	r7, #8
     c04:	46bd      	mov	sp, r7
     c06:	bd80      	pop	{r7, pc}
     c08:	100002bc 	.word	0x100002bc
     c0c:	100002bd 	.word	0x100002bd

00000c10 <leds_get>:
     c10:	b580      	push	{r7, lr}
     c12:	af00      	add	r7, sp, #0
     c14:	f000 f870 	bl	cf8 <leds_arch_get>
     c18:	4603      	mov	r3, r0
     c1a:	4618      	mov	r0, r3
     c1c:	bd80      	pop	{r7, pc}
     c1e:	bf00      	nop

00000c20 <leds_on>:
     c20:	b580      	push	{r7, lr}
     c22:	b084      	sub	sp, #16
     c24:	af00      	add	r7, sp, #0
     c26:	4603      	mov	r3, r0
     c28:	71fb      	strb	r3, [r7, #7]
     c2a:	4b0b      	ldr	r3, [pc, #44]	; (c58 <leds_on+0x38>)
     c2c:	781b      	ldrb	r3, [r3, #0]
     c2e:	b2db      	uxtb	r3, r3
     c30:	43db      	mvns	r3, r3
     c32:	b2da      	uxtb	r2, r3
     c34:	79fb      	ldrb	r3, [r7, #7]
     c36:	4013      	ands	r3, r2
     c38:	b2db      	uxtb	r3, r3
     c3a:	73fb      	strb	r3, [r7, #15]
     c3c:	4b06      	ldr	r3, [pc, #24]	; (c58 <leds_on+0x38>)
     c3e:	781a      	ldrb	r2, [r3, #0]
     c40:	79fb      	ldrb	r3, [r7, #7]
     c42:	4313      	orrs	r3, r2
     c44:	b2da      	uxtb	r2, r3
     c46:	4b04      	ldr	r3, [pc, #16]	; (c58 <leds_on+0x38>)
     c48:	701a      	strb	r2, [r3, #0]
     c4a:	7bfb      	ldrb	r3, [r7, #15]
     c4c:	4618      	mov	r0, r3
     c4e:	f7ff ff8b 	bl	b68 <show_leds>
     c52:	3710      	adds	r7, #16
     c54:	46bd      	mov	sp, r7
     c56:	bd80      	pop	{r7, pc}
     c58:	100002bc 	.word	0x100002bc

00000c5c <leds_off>:
     c5c:	b580      	push	{r7, lr}
     c5e:	b084      	sub	sp, #16
     c60:	af00      	add	r7, sp, #0
     c62:	4603      	mov	r3, r0
     c64:	71fb      	strb	r3, [r7, #7]
     c66:	4b0b      	ldr	r3, [pc, #44]	; (c94 <leds_off+0x38>)
     c68:	781a      	ldrb	r2, [r3, #0]
     c6a:	79fb      	ldrb	r3, [r7, #7]
     c6c:	4013      	ands	r3, r2
     c6e:	73fb      	strb	r3, [r7, #15]
     c70:	79fb      	ldrb	r3, [r7, #7]
     c72:	43db      	mvns	r3, r3
     c74:	b2da      	uxtb	r2, r3
     c76:	4b07      	ldr	r3, [pc, #28]	; (c94 <leds_off+0x38>)
     c78:	781b      	ldrb	r3, [r3, #0]
     c7a:	b2db      	uxtb	r3, r3
     c7c:	4013      	ands	r3, r2
     c7e:	b2db      	uxtb	r3, r3
     c80:	b2da      	uxtb	r2, r3
     c82:	4b04      	ldr	r3, [pc, #16]	; (c94 <leds_off+0x38>)
     c84:	701a      	strb	r2, [r3, #0]
     c86:	7bfb      	ldrb	r3, [r7, #15]
     c88:	4618      	mov	r0, r3
     c8a:	f7ff ff6d 	bl	b68 <show_leds>
     c8e:	3710      	adds	r7, #16
     c90:	46bd      	mov	sp, r7
     c92:	bd80      	pop	{r7, pc}
     c94:	100002bc 	.word	0x100002bc

00000c98 <leds_toggle>:
     c98:	b580      	push	{r7, lr}
     c9a:	b082      	sub	sp, #8
     c9c:	af00      	add	r7, sp, #0
     c9e:	4603      	mov	r3, r0
     ca0:	71fb      	strb	r3, [r7, #7]
     ca2:	79fb      	ldrb	r3, [r7, #7]
     ca4:	4618      	mov	r0, r3
     ca6:	f000 f803 	bl	cb0 <leds_invert>
     caa:	3708      	adds	r7, #8
     cac:	46bd      	mov	sp, r7
     cae:	bd80      	pop	{r7, pc}

00000cb0 <leds_invert>:
     cb0:	b580      	push	{r7, lr}
     cb2:	b082      	sub	sp, #8
     cb4:	af00      	add	r7, sp, #0
     cb6:	4603      	mov	r3, r0
     cb8:	71fb      	strb	r3, [r7, #7]
     cba:	4b07      	ldr	r3, [pc, #28]	; (cd8 <leds_invert+0x28>)
     cbc:	781a      	ldrb	r2, [r3, #0]
     cbe:	79fb      	ldrb	r3, [r7, #7]
     cc0:	4053      	eors	r3, r2
     cc2:	b2da      	uxtb	r2, r3
     cc4:	4b04      	ldr	r3, [pc, #16]	; (cd8 <leds_invert+0x28>)
     cc6:	701a      	strb	r2, [r3, #0]
     cc8:	79fb      	ldrb	r3, [r7, #7]
     cca:	4618      	mov	r0, r3
     ccc:	f7ff ff4c 	bl	b68 <show_leds>
     cd0:	3708      	adds	r7, #8
     cd2:	46bd      	mov	sp, r7
     cd4:	bd80      	pop	{r7, pc}
     cd6:	bf00      	nop
     cd8:	100002bd 	.word	0x100002bd

00000cdc <leds_arch_init>:
     cdc:	b580      	push	{r7, lr}
     cde:	af00      	add	r7, sp, #0
     ce0:	2001      	movs	r0, #1
     ce2:	210e      	movs	r1, #14
     ce4:	2201      	movs	r2, #1
     ce6:	f001 f8a1 	bl	1e2c <GPIOSetDir>
     cea:	2001      	movs	r0, #1
     cec:	210d      	movs	r1, #13
     cee:	2201      	movs	r2, #1
     cf0:	f001 f89c 	bl	1e2c <GPIOSetDir>
     cf4:	bd80      	pop	{r7, pc}
     cf6:	bf00      	nop

00000cf8 <leds_arch_get>:
     cf8:	b480      	push	{r7}
     cfa:	af00      	add	r7, sp, #0
     cfc:	4b0b      	ldr	r3, [pc, #44]	; (d2c <leds_arch_get+0x34>)
     cfe:	681b      	ldr	r3, [r3, #0]
     d00:	2b00      	cmp	r3, #0
     d02:	bf0c      	ite	eq
     d04:	2301      	moveq	r3, #1
     d06:	2300      	movne	r3, #0
     d08:	b2db      	uxtb	r3, r3
     d0a:	b2da      	uxtb	r2, r3
     d0c:	4b08      	ldr	r3, [pc, #32]	; (d30 <leds_arch_get+0x38>)
     d0e:	681b      	ldr	r3, [r3, #0]
     d10:	2b00      	cmp	r3, #0
     d12:	d001      	beq.n	d18 <leds_arch_get+0x20>
     d14:	2300      	movs	r3, #0
     d16:	e000      	b.n	d1a <leds_arch_get+0x22>
     d18:	2302      	movs	r3, #2
     d1a:	4313      	orrs	r3, r2
     d1c:	b2db      	uxtb	r3, r3
     d1e:	b2db      	uxtb	r3, r3
     d20:	4618      	mov	r0, r3
     d22:	46bd      	mov	sp, r7
     d24:	f85d 7b04 	ldr.w	r7, [sp], #4
     d28:	4770      	bx	lr
     d2a:	bf00      	nop
     d2c:	100002c0 	.word	0x100002c0
     d30:	100002c4 	.word	0x100002c4

00000d34 <leds_arch_set>:
     d34:	b580      	push	{r7, lr}
     d36:	b082      	sub	sp, #8
     d38:	af00      	add	r7, sp, #0
     d3a:	4603      	mov	r3, r0
     d3c:	71fb      	strb	r3, [r7, #7]
     d3e:	79fb      	ldrb	r3, [r7, #7]
     d40:	f003 0301 	and.w	r3, r3, #1
     d44:	2b00      	cmp	r3, #0
     d46:	d008      	beq.n	d5a <leds_arch_set+0x26>
     d48:	2001      	movs	r0, #1
     d4a:	210d      	movs	r1, #13
     d4c:	2201      	movs	r2, #1
     d4e:	f001 f845 	bl	1ddc <GPIOSetBitValue>
     d52:	4b12      	ldr	r3, [pc, #72]	; (d9c <leds_arch_set+0x68>)
     d54:	2201      	movs	r2, #1
     d56:	601a      	str	r2, [r3, #0]
     d58:	e007      	b.n	d6a <leds_arch_set+0x36>
     d5a:	2001      	movs	r0, #1
     d5c:	210d      	movs	r1, #13
     d5e:	2200      	movs	r2, #0
     d60:	f001 f83c 	bl	1ddc <GPIOSetBitValue>
     d64:	4b0d      	ldr	r3, [pc, #52]	; (d9c <leds_arch_set+0x68>)
     d66:	2200      	movs	r2, #0
     d68:	601a      	str	r2, [r3, #0]
     d6a:	79fb      	ldrb	r3, [r7, #7]
     d6c:	f003 0302 	and.w	r3, r3, #2
     d70:	2b00      	cmp	r3, #0
     d72:	d008      	beq.n	d86 <leds_arch_set+0x52>
     d74:	2001      	movs	r0, #1
     d76:	210e      	movs	r1, #14
     d78:	2201      	movs	r2, #1
     d7a:	f001 f82f 	bl	1ddc <GPIOSetBitValue>
     d7e:	4b08      	ldr	r3, [pc, #32]	; (da0 <leds_arch_set+0x6c>)
     d80:	2201      	movs	r2, #1
     d82:	601a      	str	r2, [r3, #0]
     d84:	e007      	b.n	d96 <leds_arch_set+0x62>
     d86:	2001      	movs	r0, #1
     d88:	210e      	movs	r1, #14
     d8a:	2200      	movs	r2, #0
     d8c:	f001 f826 	bl	1ddc <GPIOSetBitValue>
     d90:	4b03      	ldr	r3, [pc, #12]	; (da0 <leds_arch_set+0x6c>)
     d92:	2200      	movs	r2, #0
     d94:	601a      	str	r2, [r3, #0]
     d96:	3708      	adds	r7, #8
     d98:	46bd      	mov	sp, r7
     d9a:	bd80      	pop	{r7, pc}
     d9c:	100002c0 	.word	0x100002c0
     da0:	100002c4 	.word	0x100002c4

00000da4 <SysTick_handler>:
     da4:	4668      	mov	r0, sp
     da6:	f020 0107 	bic.w	r1, r0, #7
     daa:	468d      	mov	sp, r1
     dac:	b589      	push	{r0, r3, r7, lr}
     dae:	af00      	add	r7, sp, #0
     db0:	4b17      	ldr	r3, [pc, #92]	; (e10 <SysTick_handler+0x6c>)
     db2:	681b      	ldr	r3, [r3, #0]
     db4:	4b17      	ldr	r3, [pc, #92]	; (e14 <SysTick_handler+0x70>)
     db6:	f04f 7200 	mov.w	r2, #33554432	; 0x2000000
     dba:	605a      	str	r2, [r3, #4]
     dbc:	4b16      	ldr	r3, [pc, #88]	; (e18 <SysTick_handler+0x74>)
     dbe:	681b      	ldr	r3, [r3, #0]
     dc0:	3301      	adds	r3, #1
     dc2:	4a15      	ldr	r2, [pc, #84]	; (e18 <SysTick_handler+0x74>)
     dc4:	6013      	str	r3, [r2, #0]
     dc6:	f7ff fe7b 	bl	ac0 <etimer_pending>
     dca:	4603      	mov	r3, r0
     dcc:	2b00      	cmp	r3, #0
     dce:	d008      	beq.n	de2 <SysTick_handler+0x3e>
     dd0:	f7ff fe86 	bl	ae0 <etimer_next_expiration_time>
     dd4:	4602      	mov	r2, r0
     dd6:	4b10      	ldr	r3, [pc, #64]	; (e18 <SysTick_handler+0x74>)
     dd8:	681b      	ldr	r3, [r3, #0]
     dda:	429a      	cmp	r2, r3
     ddc:	d801      	bhi.n	de2 <SysTick_handler+0x3e>
     dde:	f7ff fdc9 	bl	974 <etimer_request_poll>
     de2:	4b0e      	ldr	r3, [pc, #56]	; (e1c <SysTick_handler+0x78>)
     de4:	681b      	ldr	r3, [r3, #0]
     de6:	3b01      	subs	r3, #1
     de8:	4a0c      	ldr	r2, [pc, #48]	; (e1c <SysTick_handler+0x78>)
     dea:	6013      	str	r3, [r2, #0]
     dec:	4b0b      	ldr	r3, [pc, #44]	; (e1c <SysTick_handler+0x78>)
     dee:	681b      	ldr	r3, [r3, #0]
     df0:	2b00      	cmp	r3, #0
     df2:	d108      	bne.n	e06 <SysTick_handler+0x62>
     df4:	4b0a      	ldr	r3, [pc, #40]	; (e20 <SysTick_handler+0x7c>)
     df6:	681b      	ldr	r3, [r3, #0]
     df8:	3301      	adds	r3, #1
     dfa:	4a09      	ldr	r2, [pc, #36]	; (e20 <SysTick_handler+0x7c>)
     dfc:	6013      	str	r3, [r2, #0]
     dfe:	4b07      	ldr	r3, [pc, #28]	; (e1c <SysTick_handler+0x78>)
     e00:	f242 7210 	movw	r2, #10000	; 0x2710
     e04:	601a      	str	r2, [r3, #0]
     e06:	46bd      	mov	sp, r7
     e08:	e8bd 4089 	ldmia.w	sp!, {r0, r3, r7, lr}
     e0c:	4685      	mov	sp, r0
     e0e:	4770      	bx	lr
     e10:	e000e010 	.word	0xe000e010
     e14:	e000ed00 	.word	0xe000ed00
     e18:	100002c8 	.word	0x100002c8
     e1c:	10000470 	.word	0x10000470
     e20:	100002cc 	.word	0x100002cc

00000e24 <clock_init>:
     e24:	b480      	push	{r7}
     e26:	af00      	add	r7, sp, #0
     e28:	4b09      	ldr	r3, [pc, #36]	; (e50 <clock_init+0x2c>)
     e2a:	7e9b      	ldrb	r3, [r3, #26]
     e2c:	4b08      	ldr	r3, [pc, #32]	; (e50 <clock_init+0x2c>)
     e2e:	2200      	movs	r2, #0
     e30:	769a      	strb	r2, [r3, #26]
     e32:	4a08      	ldr	r2, [pc, #32]	; (e54 <clock_init+0x30>)
     e34:	4b08      	ldr	r3, [pc, #32]	; (e58 <clock_init+0x34>)
     e36:	681b      	ldr	r3, [r3, #0]
     e38:	4908      	ldr	r1, [pc, #32]	; (e5c <clock_init+0x38>)
     e3a:	fba1 1303 	umull	r1, r3, r1, r3
     e3e:	0c1b      	lsrs	r3, r3, #16
     e40:	6053      	str	r3, [r2, #4]
     e42:	4b04      	ldr	r3, [pc, #16]	; (e54 <clock_init+0x30>)
     e44:	2203      	movs	r2, #3
     e46:	601a      	str	r2, [r3, #0]
     e48:	46bd      	mov	sp, r7
     e4a:	f85d 7b04 	ldr.w	r7, [sp], #4
     e4e:	4770      	bx	lr
     e50:	e000ed00 	.word	0xe000ed00
     e54:	e000e010 	.word	0xe000e010
     e58:	10000474 	.word	0x10000474
     e5c:	d1b71759 	.word	0xd1b71759

00000e60 <clock_time>:
     e60:	b480      	push	{r7}
     e62:	af00      	add	r7, sp, #0
     e64:	4b03      	ldr	r3, [pc, #12]	; (e74 <clock_time+0x14>)
     e66:	681b      	ldr	r3, [r3, #0]
     e68:	4618      	mov	r0, r3
     e6a:	46bd      	mov	sp, r7
     e6c:	f85d 7b04 	ldr.w	r7, [sp], #4
     e70:	4770      	bx	lr
     e72:	bf00      	nop
     e74:	100002c8 	.word	0x100002c8

00000e78 <timer16DelayUSecs>:
     e78:	b480      	push	{r7}
     e7a:	b083      	sub	sp, #12
     e7c:	af00      	add	r7, sp, #0
     e7e:	4603      	mov	r3, r0
     e80:	460a      	mov	r2, r1
     e82:	71fb      	strb	r3, [r7, #7]
     e84:	4613      	mov	r3, r2
     e86:	80bb      	strh	r3, [r7, #4]
     e88:	79fb      	ldrb	r3, [r7, #7]
     e8a:	2b00      	cmp	r3, #0
     e8c:	d122      	bne.n	ed4 <timer16DelayUSecs+0x5c>
     e8e:	4b27      	ldr	r3, [pc, #156]	; (f2c <timer16DelayUSecs+0xb4>)
     e90:	2202      	movs	r2, #2
     e92:	605a      	str	r2, [r3, #4]
     e94:	4a25      	ldr	r2, [pc, #148]	; (f2c <timer16DelayUSecs+0xb4>)
     e96:	4b26      	ldr	r3, [pc, #152]	; (f30 <timer16DelayUSecs+0xb8>)
     e98:	681b      	ldr	r3, [r3, #0]
     e9a:	4926      	ldr	r1, [pc, #152]	; (f34 <timer16DelayUSecs+0xbc>)
     e9c:	fba1 1303 	umull	r1, r3, r1, r3
     ea0:	0c9b      	lsrs	r3, r3, #18
     ea2:	3b01      	subs	r3, #1
     ea4:	60d3      	str	r3, [r2, #12]
     ea6:	4b21      	ldr	r3, [pc, #132]	; (f2c <timer16DelayUSecs+0xb4>)
     ea8:	2200      	movs	r2, #0
     eaa:	675a      	str	r2, [r3, #116]	; 0x74
     eac:	4a1f      	ldr	r2, [pc, #124]	; (f2c <timer16DelayUSecs+0xb4>)
     eae:	88bb      	ldrh	r3, [r7, #4]
     eb0:	6193      	str	r3, [r2, #24]
     eb2:	4b1e      	ldr	r3, [pc, #120]	; (f2c <timer16DelayUSecs+0xb4>)
     eb4:	22ff      	movs	r2, #255	; 0xff
     eb6:	601a      	str	r2, [r3, #0]
     eb8:	4b1c      	ldr	r3, [pc, #112]	; (f2c <timer16DelayUSecs+0xb4>)
     eba:	2204      	movs	r2, #4
     ebc:	615a      	str	r2, [r3, #20]
     ebe:	4b1b      	ldr	r3, [pc, #108]	; (f2c <timer16DelayUSecs+0xb4>)
     ec0:	2201      	movs	r2, #1
     ec2:	605a      	str	r2, [r3, #4]
     ec4:	bf00      	nop
     ec6:	4b19      	ldr	r3, [pc, #100]	; (f2c <timer16DelayUSecs+0xb4>)
     ec8:	685b      	ldr	r3, [r3, #4]
     eca:	f003 0301 	and.w	r3, r3, #1
     ece:	2b00      	cmp	r3, #0
     ed0:	d1f9      	bne.n	ec6 <timer16DelayUSecs+0x4e>
     ed2:	e025      	b.n	f20 <timer16DelayUSecs+0xa8>
     ed4:	79fb      	ldrb	r3, [r7, #7]
     ed6:	2b01      	cmp	r3, #1
     ed8:	d121      	bne.n	f1e <timer16DelayUSecs+0xa6>
     eda:	4b17      	ldr	r3, [pc, #92]	; (f38 <timer16DelayUSecs+0xc0>)
     edc:	2202      	movs	r2, #2
     ede:	605a      	str	r2, [r3, #4]
     ee0:	4a15      	ldr	r2, [pc, #84]	; (f38 <timer16DelayUSecs+0xc0>)
     ee2:	4b13      	ldr	r3, [pc, #76]	; (f30 <timer16DelayUSecs+0xb8>)
     ee4:	681b      	ldr	r3, [r3, #0]
     ee6:	4913      	ldr	r1, [pc, #76]	; (f34 <timer16DelayUSecs+0xbc>)
     ee8:	fba1 1303 	umull	r1, r3, r1, r3
     eec:	0c9b      	lsrs	r3, r3, #18
     eee:	3b01      	subs	r3, #1
     ef0:	60d3      	str	r3, [r2, #12]
     ef2:	4b11      	ldr	r3, [pc, #68]	; (f38 <timer16DelayUSecs+0xc0>)
     ef4:	2200      	movs	r2, #0
     ef6:	675a      	str	r2, [r3, #116]	; 0x74
     ef8:	4a0f      	ldr	r2, [pc, #60]	; (f38 <timer16DelayUSecs+0xc0>)
     efa:	88bb      	ldrh	r3, [r7, #4]
     efc:	6193      	str	r3, [r2, #24]
     efe:	4b0e      	ldr	r3, [pc, #56]	; (f38 <timer16DelayUSecs+0xc0>)
     f00:	22ff      	movs	r2, #255	; 0xff
     f02:	601a      	str	r2, [r3, #0]
     f04:	4b0c      	ldr	r3, [pc, #48]	; (f38 <timer16DelayUSecs+0xc0>)
     f06:	2204      	movs	r2, #4
     f08:	615a      	str	r2, [r3, #20]
     f0a:	4b0b      	ldr	r3, [pc, #44]	; (f38 <timer16DelayUSecs+0xc0>)
     f0c:	2201      	movs	r2, #1
     f0e:	605a      	str	r2, [r3, #4]
     f10:	bf00      	nop
     f12:	4b09      	ldr	r3, [pc, #36]	; (f38 <timer16DelayUSecs+0xc0>)
     f14:	685b      	ldr	r3, [r3, #4]
     f16:	f003 0301 	and.w	r3, r3, #1
     f1a:	2b00      	cmp	r3, #0
     f1c:	d1f9      	bne.n	f12 <timer16DelayUSecs+0x9a>
     f1e:	bf00      	nop
     f20:	370c      	adds	r7, #12
     f22:	46bd      	mov	sp, r7
     f24:	f85d 7b04 	ldr.w	r7, [sp], #4
     f28:	4770      	bx	lr
     f2a:	bf00      	nop
     f2c:	4000c000 	.word	0x4000c000
     f30:	10000474 	.word	0x10000474
     f34:	431bde83 	.word	0x431bde83
     f38:	40010000 	.word	0x40010000

00000f3c <clock_delay_usec>:
     f3c:	b580      	push	{r7, lr}
     f3e:	b082      	sub	sp, #8
     f40:	af00      	add	r7, sp, #0
     f42:	4603      	mov	r3, r0
     f44:	80fb      	strh	r3, [r7, #6]
     f46:	88fb      	ldrh	r3, [r7, #6]
     f48:	2000      	movs	r0, #0
     f4a:	4619      	mov	r1, r3
     f4c:	f7ff ff94 	bl	e78 <timer16DelayUSecs>
     f50:	3708      	adds	r7, #8
     f52:	46bd      	mov	sp, r7
     f54:	bd80      	pop	{r7, pc}
     f56:	bf00      	nop

00000f58 <clock_delay>:
     f58:	b580      	push	{r7, lr}
     f5a:	b082      	sub	sp, #8
     f5c:	af00      	add	r7, sp, #0
     f5e:	6078      	str	r0, [r7, #4]
     f60:	687b      	ldr	r3, [r7, #4]
     f62:	b29b      	uxth	r3, r3
     f64:	4618      	mov	r0, r3
     f66:	f7ff ffe9 	bl	f3c <clock_delay_usec>
     f6a:	3708      	adds	r7, #8
     f6c:	46bd      	mov	sp, r7
     f6e:	bd80      	pop	{r7, pc}

00000f70 <clock_seconds>:
     f70:	b480      	push	{r7}
     f72:	af00      	add	r7, sp, #0
     f74:	4b03      	ldr	r3, [pc, #12]	; (f84 <clock_seconds+0x14>)
     f76:	681b      	ldr	r3, [r3, #0]
     f78:	4618      	mov	r0, r3
     f7a:	46bd      	mov	sp, r7
     f7c:	f85d 7b04 	ldr.w	r7, [sp], #4
     f80:	4770      	bx	lr
     f82:	bf00      	nop
     f84:	100002cc 	.word	0x100002cc

00000f88 <SystemCoreClockUpdate>:
     f88:	b480      	push	{r7}
     f8a:	b083      	sub	sp, #12
     f8c:	af00      	add	r7, sp, #0
     f8e:	2300      	movs	r3, #0
     f90:	607b      	str	r3, [r7, #4]
     f92:	4b77      	ldr	r3, [pc, #476]	; (1170 <SystemCoreClockUpdate+0x1e8>)
     f94:	6a5b      	ldr	r3, [r3, #36]	; 0x24
     f96:	095b      	lsrs	r3, r3, #5
     f98:	f003 030f 	and.w	r3, r3, #15
     f9c:	2b0f      	cmp	r3, #15
     f9e:	d853      	bhi.n	1048 <SystemCoreClockUpdate+0xc0>
     fa0:	a201      	add	r2, pc, #4	; (adr r2, fa8 <SystemCoreClockUpdate+0x20>)
     fa2:	f852 f023 	ldr.w	pc, [r2, r3, lsl #2]
     fa6:	bf00      	nop
     fa8:	00000fe9 	.word	0x00000fe9
     fac:	00000fef 	.word	0x00000fef
     fb0:	00000ff5 	.word	0x00000ff5
     fb4:	00000ffb 	.word	0x00000ffb
     fb8:	00001001 	.word	0x00001001
     fbc:	00001007 	.word	0x00001007
     fc0:	0000100d 	.word	0x0000100d
     fc4:	00001013 	.word	0x00001013
     fc8:	00001019 	.word	0x00001019
     fcc:	0000101f 	.word	0x0000101f
     fd0:	00001025 	.word	0x00001025
     fd4:	0000102b 	.word	0x0000102b
     fd8:	00001031 	.word	0x00001031
     fdc:	00001037 	.word	0x00001037
     fe0:	0000103d 	.word	0x0000103d
     fe4:	00001043 	.word	0x00001043
     fe8:	2300      	movs	r3, #0
     fea:	607b      	str	r3, [r7, #4]
     fec:	e02c      	b.n	1048 <SystemCoreClockUpdate+0xc0>
     fee:	4b61      	ldr	r3, [pc, #388]	; (1174 <SystemCoreClockUpdate+0x1ec>)
     ff0:	607b      	str	r3, [r7, #4]
     ff2:	e029      	b.n	1048 <SystemCoreClockUpdate+0xc0>
     ff4:	4b60      	ldr	r3, [pc, #384]	; (1178 <SystemCoreClockUpdate+0x1f0>)
     ff6:	607b      	str	r3, [r7, #4]
     ff8:	e026      	b.n	1048 <SystemCoreClockUpdate+0xc0>
     ffa:	4b60      	ldr	r3, [pc, #384]	; (117c <SystemCoreClockUpdate+0x1f4>)
     ffc:	607b      	str	r3, [r7, #4]
     ffe:	e023      	b.n	1048 <SystemCoreClockUpdate+0xc0>
    1000:	4b5f      	ldr	r3, [pc, #380]	; (1180 <SystemCoreClockUpdate+0x1f8>)
    1002:	607b      	str	r3, [r7, #4]
    1004:	e020      	b.n	1048 <SystemCoreClockUpdate+0xc0>
    1006:	4b5f      	ldr	r3, [pc, #380]	; (1184 <SystemCoreClockUpdate+0x1fc>)
    1008:	607b      	str	r3, [r7, #4]
    100a:	e01d      	b.n	1048 <SystemCoreClockUpdate+0xc0>
    100c:	4b5e      	ldr	r3, [pc, #376]	; (1188 <SystemCoreClockUpdate+0x200>)
    100e:	607b      	str	r3, [r7, #4]
    1010:	e01a      	b.n	1048 <SystemCoreClockUpdate+0xc0>
    1012:	4b5e      	ldr	r3, [pc, #376]	; (118c <SystemCoreClockUpdate+0x204>)
    1014:	607b      	str	r3, [r7, #4]
    1016:	e017      	b.n	1048 <SystemCoreClockUpdate+0xc0>
    1018:	4b5d      	ldr	r3, [pc, #372]	; (1190 <SystemCoreClockUpdate+0x208>)
    101a:	607b      	str	r3, [r7, #4]
    101c:	e014      	b.n	1048 <SystemCoreClockUpdate+0xc0>
    101e:	4b5d      	ldr	r3, [pc, #372]	; (1194 <SystemCoreClockUpdate+0x20c>)
    1020:	607b      	str	r3, [r7, #4]
    1022:	e011      	b.n	1048 <SystemCoreClockUpdate+0xc0>
    1024:	4b5c      	ldr	r3, [pc, #368]	; (1198 <SystemCoreClockUpdate+0x210>)
    1026:	607b      	str	r3, [r7, #4]
    1028:	e00e      	b.n	1048 <SystemCoreClockUpdate+0xc0>
    102a:	4b5c      	ldr	r3, [pc, #368]	; (119c <SystemCoreClockUpdate+0x214>)
    102c:	607b      	str	r3, [r7, #4]
    102e:	e00b      	b.n	1048 <SystemCoreClockUpdate+0xc0>
    1030:	4b5b      	ldr	r3, [pc, #364]	; (11a0 <SystemCoreClockUpdate+0x218>)
    1032:	607b      	str	r3, [r7, #4]
    1034:	e008      	b.n	1048 <SystemCoreClockUpdate+0xc0>
    1036:	4b5b      	ldr	r3, [pc, #364]	; (11a4 <SystemCoreClockUpdate+0x21c>)
    1038:	607b      	str	r3, [r7, #4]
    103a:	e005      	b.n	1048 <SystemCoreClockUpdate+0xc0>
    103c:	4b5a      	ldr	r3, [pc, #360]	; (11a8 <SystemCoreClockUpdate+0x220>)
    103e:	607b      	str	r3, [r7, #4]
    1040:	e002      	b.n	1048 <SystemCoreClockUpdate+0xc0>
    1042:	4b5a      	ldr	r3, [pc, #360]	; (11ac <SystemCoreClockUpdate+0x224>)
    1044:	607b      	str	r3, [r7, #4]
    1046:	bf00      	nop
    1048:	4b49      	ldr	r3, [pc, #292]	; (1170 <SystemCoreClockUpdate+0x1e8>)
    104a:	6a5b      	ldr	r3, [r3, #36]	; 0x24
    104c:	f003 031f 	and.w	r3, r3, #31
    1050:	005b      	lsls	r3, r3, #1
    1052:	3302      	adds	r3, #2
    1054:	687a      	ldr	r2, [r7, #4]
    1056:	fbb2 f3f3 	udiv	r3, r2, r3
    105a:	607b      	str	r3, [r7, #4]
    105c:	4b44      	ldr	r3, [pc, #272]	; (1170 <SystemCoreClockUpdate+0x1e8>)
    105e:	6f1b      	ldr	r3, [r3, #112]	; 0x70
    1060:	f003 0303 	and.w	r3, r3, #3
    1064:	2b03      	cmp	r3, #3
    1066:	d875      	bhi.n	1154 <SystemCoreClockUpdate+0x1cc>
    1068:	a201      	add	r2, pc, #4	; (adr r2, 1070 <SystemCoreClockUpdate+0xe8>)
    106a:	f852 f023 	ldr.w	pc, [r2, r3, lsl #2]
    106e:	bf00      	nop
    1070:	00001081 	.word	0x00001081
    1074:	00001089 	.word	0x00001089
    1078:	000010c7 	.word	0x000010c7
    107c:	000010cf 	.word	0x000010cf
    1080:	4b4b      	ldr	r3, [pc, #300]	; (11b0 <SystemCoreClockUpdate+0x228>)
    1082:	4a4c      	ldr	r2, [pc, #304]	; (11b4 <SystemCoreClockUpdate+0x22c>)
    1084:	601a      	str	r2, [r3, #0]
    1086:	e065      	b.n	1154 <SystemCoreClockUpdate+0x1cc>
    1088:	4b39      	ldr	r3, [pc, #228]	; (1170 <SystemCoreClockUpdate+0x1e8>)
    108a:	6c1b      	ldr	r3, [r3, #64]	; 0x40
    108c:	f003 0303 	and.w	r3, r3, #3
    1090:	2b03      	cmp	r3, #3
    1092:	d85c      	bhi.n	114e <SystemCoreClockUpdate+0x1c6>
    1094:	a201      	add	r2, pc, #4	; (adr r2, 109c <SystemCoreClockUpdate+0x114>)
    1096:	f852 f023 	ldr.w	pc, [r2, r3, lsl #2]
    109a:	bf00      	nop
    109c:	000010ad 	.word	0x000010ad
    10a0:	000010b5 	.word	0x000010b5
    10a4:	000010bd 	.word	0x000010bd
    10a8:	000010bd 	.word	0x000010bd
    10ac:	4b40      	ldr	r3, [pc, #256]	; (11b0 <SystemCoreClockUpdate+0x228>)
    10ae:	4a41      	ldr	r2, [pc, #260]	; (11b4 <SystemCoreClockUpdate+0x22c>)
    10b0:	601a      	str	r2, [r3, #0]
    10b2:	e007      	b.n	10c4 <SystemCoreClockUpdate+0x13c>
    10b4:	4b3e      	ldr	r3, [pc, #248]	; (11b0 <SystemCoreClockUpdate+0x228>)
    10b6:	4a3f      	ldr	r2, [pc, #252]	; (11b4 <SystemCoreClockUpdate+0x22c>)
    10b8:	601a      	str	r2, [r3, #0]
    10ba:	e003      	b.n	10c4 <SystemCoreClockUpdate+0x13c>
    10bc:	4b3c      	ldr	r3, [pc, #240]	; (11b0 <SystemCoreClockUpdate+0x228>)
    10be:	2200      	movs	r2, #0
    10c0:	601a      	str	r2, [r3, #0]
    10c2:	bf00      	nop
    10c4:	e043      	b.n	114e <SystemCoreClockUpdate+0x1c6>
    10c6:	4a3a      	ldr	r2, [pc, #232]	; (11b0 <SystemCoreClockUpdate+0x228>)
    10c8:	687b      	ldr	r3, [r7, #4]
    10ca:	6013      	str	r3, [r2, #0]
    10cc:	e042      	b.n	1154 <SystemCoreClockUpdate+0x1cc>
    10ce:	4b28      	ldr	r3, [pc, #160]	; (1170 <SystemCoreClockUpdate+0x1e8>)
    10d0:	6c1b      	ldr	r3, [r3, #64]	; 0x40
    10d2:	f003 0303 	and.w	r3, r3, #3
    10d6:	2b03      	cmp	r3, #3
    10d8:	d83b      	bhi.n	1152 <SystemCoreClockUpdate+0x1ca>
    10da:	a201      	add	r2, pc, #4	; (adr r2, 10e0 <SystemCoreClockUpdate+0x158>)
    10dc:	f852 f023 	ldr.w	pc, [r2, r3, lsl #2]
    10e0:	000010f1 	.word	0x000010f1
    10e4:	0000111b 	.word	0x0000111b
    10e8:	00001145 	.word	0x00001145
    10ec:	00001145 	.word	0x00001145
    10f0:	4b1f      	ldr	r3, [pc, #124]	; (1170 <SystemCoreClockUpdate+0x1e8>)
    10f2:	689b      	ldr	r3, [r3, #8]
    10f4:	f403 73c0 	and.w	r3, r3, #384	; 0x180
    10f8:	2b00      	cmp	r3, #0
    10fa:	d003      	beq.n	1104 <SystemCoreClockUpdate+0x17c>
    10fc:	4b2c      	ldr	r3, [pc, #176]	; (11b0 <SystemCoreClockUpdate+0x228>)
    10fe:	4a2d      	ldr	r2, [pc, #180]	; (11b4 <SystemCoreClockUpdate+0x22c>)
    1100:	601a      	str	r2, [r3, #0]
    1102:	e023      	b.n	114c <SystemCoreClockUpdate+0x1c4>
    1104:	4b1a      	ldr	r3, [pc, #104]	; (1170 <SystemCoreClockUpdate+0x1e8>)
    1106:	689b      	ldr	r3, [r3, #8]
    1108:	f003 031f 	and.w	r3, r3, #31
    110c:	3301      	adds	r3, #1
    110e:	4a29      	ldr	r2, [pc, #164]	; (11b4 <SystemCoreClockUpdate+0x22c>)
    1110:	fb02 f303 	mul.w	r3, r2, r3
    1114:	4a26      	ldr	r2, [pc, #152]	; (11b0 <SystemCoreClockUpdate+0x228>)
    1116:	6013      	str	r3, [r2, #0]
    1118:	e018      	b.n	114c <SystemCoreClockUpdate+0x1c4>
    111a:	4b15      	ldr	r3, [pc, #84]	; (1170 <SystemCoreClockUpdate+0x1e8>)
    111c:	689b      	ldr	r3, [r3, #8]
    111e:	f403 73c0 	and.w	r3, r3, #384	; 0x180
    1122:	2b00      	cmp	r3, #0
    1124:	d003      	beq.n	112e <SystemCoreClockUpdate+0x1a6>
    1126:	4b22      	ldr	r3, [pc, #136]	; (11b0 <SystemCoreClockUpdate+0x228>)
    1128:	4a22      	ldr	r2, [pc, #136]	; (11b4 <SystemCoreClockUpdate+0x22c>)
    112a:	601a      	str	r2, [r3, #0]
    112c:	e00e      	b.n	114c <SystemCoreClockUpdate+0x1c4>
    112e:	4b10      	ldr	r3, [pc, #64]	; (1170 <SystemCoreClockUpdate+0x1e8>)
    1130:	689b      	ldr	r3, [r3, #8]
    1132:	f003 031f 	and.w	r3, r3, #31
    1136:	3301      	adds	r3, #1
    1138:	4a1e      	ldr	r2, [pc, #120]	; (11b4 <SystemCoreClockUpdate+0x22c>)
    113a:	fb02 f303 	mul.w	r3, r2, r3
    113e:	4a1c      	ldr	r2, [pc, #112]	; (11b0 <SystemCoreClockUpdate+0x228>)
    1140:	6013      	str	r3, [r2, #0]
    1142:	e003      	b.n	114c <SystemCoreClockUpdate+0x1c4>
    1144:	4b1a      	ldr	r3, [pc, #104]	; (11b0 <SystemCoreClockUpdate+0x228>)
    1146:	2200      	movs	r2, #0
    1148:	601a      	str	r2, [r3, #0]
    114a:	bf00      	nop
    114c:	e001      	b.n	1152 <SystemCoreClockUpdate+0x1ca>
    114e:	bf00      	nop
    1150:	e000      	b.n	1154 <SystemCoreClockUpdate+0x1cc>
    1152:	bf00      	nop
    1154:	4b06      	ldr	r3, [pc, #24]	; (1170 <SystemCoreClockUpdate+0x1e8>)
    1156:	6f9b      	ldr	r3, [r3, #120]	; 0x78
    1158:	4a15      	ldr	r2, [pc, #84]	; (11b0 <SystemCoreClockUpdate+0x228>)
    115a:	6812      	ldr	r2, [r2, #0]
    115c:	fbb2 f3f3 	udiv	r3, r2, r3
    1160:	4a13      	ldr	r2, [pc, #76]	; (11b0 <SystemCoreClockUpdate+0x228>)
    1162:	6013      	str	r3, [r2, #0]
    1164:	370c      	adds	r7, #12
    1166:	46bd      	mov	sp, r7
    1168:	f85d 7b04 	ldr.w	r7, [sp], #4
    116c:	4770      	bx	lr
    116e:	bf00      	nop
    1170:	40048000 	.word	0x40048000
    1174:	0007a120 	.word	0x0007a120
    1178:	000c3500 	.word	0x000c3500
    117c:	0010c8e0 	.word	0x0010c8e0
    1180:	00155cc0 	.word	0x00155cc0
    1184:	00186a00 	.word	0x00186a00
    1188:	001b7740 	.word	0x001b7740
    118c:	001e8480 	.word	0x001e8480
    1190:	002191c0 	.word	0x002191c0
    1194:	00249f00 	.word	0x00249f00
    1198:	0027ac40 	.word	0x0027ac40
    119c:	002932e0 	.word	0x002932e0
    11a0:	002c4020 	.word	0x002c4020
    11a4:	002f4d60 	.word	0x002f4d60
    11a8:	0030d400 	.word	0x0030d400
    11ac:	0033e140 	.word	0x0033e140
    11b0:	10000474 	.word	0x10000474
    11b4:	00b71b00 	.word	0x00b71b00

000011b8 <SystemInit>:
    11b8:	b480      	push	{r7}
    11ba:	b083      	sub	sp, #12
    11bc:	af00      	add	r7, sp, #0
    11be:	4a31      	ldr	r2, [pc, #196]	; (1284 <SystemInit+0xcc>)
    11c0:	4b30      	ldr	r3, [pc, #192]	; (1284 <SystemInit+0xcc>)
    11c2:	f8d3 3238 	ldr.w	r3, [r3, #568]	; 0x238
    11c6:	f023 0320 	bic.w	r3, r3, #32
    11ca:	f8c2 3238 	str.w	r3, [r2, #568]	; 0x238
    11ce:	4b2d      	ldr	r3, [pc, #180]	; (1284 <SystemInit+0xcc>)
    11d0:	2200      	movs	r2, #0
    11d2:	621a      	str	r2, [r3, #32]
    11d4:	2300      	movs	r3, #0
    11d6:	607b      	str	r3, [r7, #4]
    11d8:	e003      	b.n	11e2 <SystemInit+0x2a>
    11da:	bf00      	nop
    11dc:	687b      	ldr	r3, [r7, #4]
    11de:	3301      	adds	r3, #1
    11e0:	607b      	str	r3, [r7, #4]
    11e2:	687b      	ldr	r3, [r7, #4]
    11e4:	2bc7      	cmp	r3, #199	; 0xc7
    11e6:	d9f8      	bls.n	11da <SystemInit+0x22>
    11e8:	4b26      	ldr	r3, [pc, #152]	; (1284 <SystemInit+0xcc>)
    11ea:	2201      	movs	r2, #1
    11ec:	641a      	str	r2, [r3, #64]	; 0x40
    11ee:	4b25      	ldr	r3, [pc, #148]	; (1284 <SystemInit+0xcc>)
    11f0:	2225      	movs	r2, #37	; 0x25
    11f2:	609a      	str	r2, [r3, #8]
    11f4:	4a23      	ldr	r2, [pc, #140]	; (1284 <SystemInit+0xcc>)
    11f6:	4b23      	ldr	r3, [pc, #140]	; (1284 <SystemInit+0xcc>)
    11f8:	f8d3 3238 	ldr.w	r3, [r3, #568]	; 0x238
    11fc:	f023 0380 	bic.w	r3, r3, #128	; 0x80
    1200:	f8c2 3238 	str.w	r3, [r2, #568]	; 0x238
    1204:	bf00      	nop
    1206:	4b1f      	ldr	r3, [pc, #124]	; (1284 <SystemInit+0xcc>)
    1208:	68db      	ldr	r3, [r3, #12]
    120a:	f003 0301 	and.w	r3, r3, #1
    120e:	2b00      	cmp	r3, #0
    1210:	d0f9      	beq.n	1206 <SystemInit+0x4e>
    1212:	4b1c      	ldr	r3, [pc, #112]	; (1284 <SystemInit+0xcc>)
    1214:	2203      	movs	r2, #3
    1216:	671a      	str	r2, [r3, #112]	; 0x70
    1218:	4b1a      	ldr	r3, [pc, #104]	; (1284 <SystemInit+0xcc>)
    121a:	2201      	movs	r2, #1
    121c:	679a      	str	r2, [r3, #120]	; 0x78
    121e:	4a19      	ldr	r2, [pc, #100]	; (1284 <SystemInit+0xcc>)
    1220:	4b18      	ldr	r3, [pc, #96]	; (1284 <SystemInit+0xcc>)
    1222:	f8d3 3238 	ldr.w	r3, [r3, #568]	; 0x238
    1226:	f423 6380 	bic.w	r3, r3, #1024	; 0x400
    122a:	f8c2 3238 	str.w	r3, [r2, #568]	; 0x238
    122e:	4a15      	ldr	r2, [pc, #84]	; (1284 <SystemInit+0xcc>)
    1230:	4b14      	ldr	r3, [pc, #80]	; (1284 <SystemInit+0xcc>)
    1232:	f8d3 3238 	ldr.w	r3, [r3, #568]	; 0x238
    1236:	f423 7380 	bic.w	r3, r3, #256	; 0x100
    123a:	f8c2 3238 	str.w	r3, [r2, #568]	; 0x238
    123e:	4b11      	ldr	r3, [pc, #68]	; (1284 <SystemInit+0xcc>)
    1240:	2201      	movs	r2, #1
    1242:	649a      	str	r2, [r3, #72]	; 0x48
    1244:	4b0f      	ldr	r3, [pc, #60]	; (1284 <SystemInit+0xcc>)
    1246:	2223      	movs	r2, #35	; 0x23
    1248:	611a      	str	r2, [r3, #16]
    124a:	bf00      	nop
    124c:	4b0d      	ldr	r3, [pc, #52]	; (1284 <SystemInit+0xcc>)
    124e:	695b      	ldr	r3, [r3, #20]
    1250:	f003 0301 	and.w	r3, r3, #1
    1254:	2b00      	cmp	r3, #0
    1256:	d0f9      	beq.n	124c <SystemInit+0x94>
    1258:	4b0a      	ldr	r3, [pc, #40]	; (1284 <SystemInit+0xcc>)
    125a:	2200      	movs	r2, #0
    125c:	f8c3 20c0 	str.w	r2, [r3, #192]	; 0xc0
    1260:	4b08      	ldr	r3, [pc, #32]	; (1284 <SystemInit+0xcc>)
    1262:	2201      	movs	r2, #1
    1264:	f8c3 20c8 	str.w	r2, [r3, #200]	; 0xc8
    1268:	4a06      	ldr	r2, [pc, #24]	; (1284 <SystemInit+0xcc>)
    126a:	4b06      	ldr	r3, [pc, #24]	; (1284 <SystemInit+0xcc>)
    126c:	f8d3 3080 	ldr.w	r3, [r3, #128]	; 0x80
    1270:	f443 3380 	orr.w	r3, r3, #65536	; 0x10000
    1274:	f8c2 3080 	str.w	r3, [r2, #128]	; 0x80
    1278:	370c      	adds	r7, #12
    127a:	46bd      	mov	sp, r7
    127c:	f85d 7b04 	ldr.w	r7, [sp], #4
    1280:	4770      	bx	lr
    1282:	bf00      	nop
    1284:	40048000 	.word	0x40048000

00001288 <NVIC_EnableIRQ>:
    1288:	b480      	push	{r7}
    128a:	b083      	sub	sp, #12
    128c:	af00      	add	r7, sp, #0
    128e:	4603      	mov	r3, r0
    1290:	71fb      	strb	r3, [r7, #7]
    1292:	4908      	ldr	r1, [pc, #32]	; (12b4 <NVIC_EnableIRQ+0x2c>)
    1294:	f997 3007 	ldrsb.w	r3, [r7, #7]
    1298:	095b      	lsrs	r3, r3, #5
    129a:	79fa      	ldrb	r2, [r7, #7]
    129c:	f002 021f 	and.w	r2, r2, #31
    12a0:	2001      	movs	r0, #1
    12a2:	fa00 f202 	lsl.w	r2, r0, r2
    12a6:	f841 2023 	str.w	r2, [r1, r3, lsl #2]
    12aa:	370c      	adds	r7, #12
    12ac:	46bd      	mov	sp, r7
    12ae:	f85d 7b04 	ldr.w	r7, [sp], #4
    12b2:	4770      	bx	lr
    12b4:	e000e100 	.word	0xe000e100

000012b8 <NVIC_ClearPendingIRQ>:
    12b8:	b480      	push	{r7}
    12ba:	b083      	sub	sp, #12
    12bc:	af00      	add	r7, sp, #0
    12be:	4603      	mov	r3, r0
    12c0:	71fb      	strb	r3, [r7, #7]
    12c2:	4909      	ldr	r1, [pc, #36]	; (12e8 <NVIC_ClearPendingIRQ+0x30>)
    12c4:	f997 3007 	ldrsb.w	r3, [r7, #7]
    12c8:	095b      	lsrs	r3, r3, #5
    12ca:	79fa      	ldrb	r2, [r7, #7]
    12cc:	f002 021f 	and.w	r2, r2, #31
    12d0:	2001      	movs	r0, #1
    12d2:	fa00 f202 	lsl.w	r2, r0, r2
    12d6:	3360      	adds	r3, #96	; 0x60
    12d8:	f841 2023 	str.w	r2, [r1, r3, lsl #2]
    12dc:	370c      	adds	r7, #12
    12de:	46bd      	mov	sp, r7
    12e0:	f85d 7b04 	ldr.w	r7, [sp], #4
    12e4:	4770      	bx	lr
    12e6:	bf00      	nop
    12e8:	e000e100 	.word	0xe000e100

000012ec <PIN_INT0_IRQHandler>:
    12ec:	b480      	push	{r7}
    12ee:	af00      	add	r7, sp, #0
    12f0:	4b23      	ldr	r3, [pc, #140]	; (1380 <PIN_INT0_IRQHandler+0x94>)
    12f2:	681b      	ldr	r3, [r3, #0]
    12f4:	3301      	adds	r3, #1
    12f6:	4a22      	ldr	r2, [pc, #136]	; (1380 <PIN_INT0_IRQHandler+0x94>)
    12f8:	6013      	str	r3, [r2, #0]
    12fa:	4b22      	ldr	r3, [pc, #136]	; (1384 <PIN_INT0_IRQHandler+0x98>)
    12fc:	6a5b      	ldr	r3, [r3, #36]	; 0x24
    12fe:	f003 0301 	and.w	r3, r3, #1
    1302:	2b00      	cmp	r3, #0
    1304:	d036      	beq.n	1374 <PIN_INT0_IRQHandler+0x88>
    1306:	4b1f      	ldr	r3, [pc, #124]	; (1384 <PIN_INT0_IRQHandler+0x98>)
    1308:	681b      	ldr	r3, [r3, #0]
    130a:	f003 0301 	and.w	r3, r3, #1
    130e:	2b00      	cmp	r3, #0
    1310:	d005      	beq.n	131e <PIN_INT0_IRQHandler+0x32>
    1312:	4b1d      	ldr	r3, [pc, #116]	; (1388 <PIN_INT0_IRQHandler+0x9c>)
    1314:	681b      	ldr	r3, [r3, #0]
    1316:	3301      	adds	r3, #1
    1318:	4a1b      	ldr	r2, [pc, #108]	; (1388 <PIN_INT0_IRQHandler+0x9c>)
    131a:	6013      	str	r3, [r2, #0]
    131c:	e02a      	b.n	1374 <PIN_INT0_IRQHandler+0x88>
    131e:	4b19      	ldr	r3, [pc, #100]	; (1384 <PIN_INT0_IRQHandler+0x98>)
    1320:	69db      	ldr	r3, [r3, #28]
    1322:	f003 0301 	and.w	r3, r3, #1
    1326:	2b00      	cmp	r3, #0
    1328:	d00d      	beq.n	1346 <PIN_INT0_IRQHandler+0x5a>
    132a:	4b16      	ldr	r3, [pc, #88]	; (1384 <PIN_INT0_IRQHandler+0x98>)
    132c:	685b      	ldr	r3, [r3, #4]
    132e:	f003 0301 	and.w	r3, r3, #1
    1332:	2b00      	cmp	r3, #0
    1334:	d007      	beq.n	1346 <PIN_INT0_IRQHandler+0x5a>
    1336:	4b15      	ldr	r3, [pc, #84]	; (138c <PIN_INT0_IRQHandler+0xa0>)
    1338:	681b      	ldr	r3, [r3, #0]
    133a:	3301      	adds	r3, #1
    133c:	4a13      	ldr	r2, [pc, #76]	; (138c <PIN_INT0_IRQHandler+0xa0>)
    133e:	6013      	str	r3, [r2, #0]
    1340:	4b10      	ldr	r3, [pc, #64]	; (1384 <PIN_INT0_IRQHandler+0x98>)
    1342:	2201      	movs	r2, #1
    1344:	61da      	str	r2, [r3, #28]
    1346:	4b0f      	ldr	r3, [pc, #60]	; (1384 <PIN_INT0_IRQHandler+0x98>)
    1348:	6a1b      	ldr	r3, [r3, #32]
    134a:	f003 0301 	and.w	r3, r3, #1
    134e:	2b00      	cmp	r3, #0
    1350:	d00d      	beq.n	136e <PIN_INT0_IRQHandler+0x82>
    1352:	4b0c      	ldr	r3, [pc, #48]	; (1384 <PIN_INT0_IRQHandler+0x98>)
    1354:	691b      	ldr	r3, [r3, #16]
    1356:	f003 0301 	and.w	r3, r3, #1
    135a:	2b00      	cmp	r3, #0
    135c:	d007      	beq.n	136e <PIN_INT0_IRQHandler+0x82>
    135e:	4b0c      	ldr	r3, [pc, #48]	; (1390 <PIN_INT0_IRQHandler+0xa4>)
    1360:	681b      	ldr	r3, [r3, #0]
    1362:	3301      	adds	r3, #1
    1364:	4a0a      	ldr	r2, [pc, #40]	; (1390 <PIN_INT0_IRQHandler+0xa4>)
    1366:	6013      	str	r3, [r2, #0]
    1368:	4b06      	ldr	r3, [pc, #24]	; (1384 <PIN_INT0_IRQHandler+0x98>)
    136a:	2201      	movs	r2, #1
    136c:	621a      	str	r2, [r3, #32]
    136e:	4b05      	ldr	r3, [pc, #20]	; (1384 <PIN_INT0_IRQHandler+0x98>)
    1370:	2201      	movs	r2, #1
    1372:	625a      	str	r2, [r3, #36]	; 0x24
    1374:	bf00      	nop
    1376:	46bd      	mov	sp, r7
    1378:	f85d 7b04 	ldr.w	r7, [sp], #4
    137c:	4770      	bx	lr
    137e:	bf00      	nop
    1380:	100002d0 	.word	0x100002d0
    1384:	4004c000 	.word	0x4004c000
    1388:	100002f8 	.word	0x100002f8
    138c:	100002fc 	.word	0x100002fc
    1390:	10000300 	.word	0x10000300

00001394 <PIN_INT1_IRQHandler>:
    1394:	b480      	push	{r7}
    1396:	af00      	add	r7, sp, #0
    1398:	4b23      	ldr	r3, [pc, #140]	; (1428 <PIN_INT1_IRQHandler+0x94>)
    139a:	681b      	ldr	r3, [r3, #0]
    139c:	3301      	adds	r3, #1
    139e:	4a22      	ldr	r2, [pc, #136]	; (1428 <PIN_INT1_IRQHandler+0x94>)
    13a0:	6013      	str	r3, [r2, #0]
    13a2:	4b22      	ldr	r3, [pc, #136]	; (142c <PIN_INT1_IRQHandler+0x98>)
    13a4:	6a5b      	ldr	r3, [r3, #36]	; 0x24
    13a6:	f003 0302 	and.w	r3, r3, #2
    13aa:	2b00      	cmp	r3, #0
    13ac:	d036      	beq.n	141c <PIN_INT1_IRQHandler+0x88>
    13ae:	4b1f      	ldr	r3, [pc, #124]	; (142c <PIN_INT1_IRQHandler+0x98>)
    13b0:	681b      	ldr	r3, [r3, #0]
    13b2:	f003 0302 	and.w	r3, r3, #2
    13b6:	2b00      	cmp	r3, #0
    13b8:	d005      	beq.n	13c6 <PIN_INT1_IRQHandler+0x32>
    13ba:	4b1d      	ldr	r3, [pc, #116]	; (1430 <PIN_INT1_IRQHandler+0x9c>)
    13bc:	681b      	ldr	r3, [r3, #0]
    13be:	3301      	adds	r3, #1
    13c0:	4a1b      	ldr	r2, [pc, #108]	; (1430 <PIN_INT1_IRQHandler+0x9c>)
    13c2:	6013      	str	r3, [r2, #0]
    13c4:	e02a      	b.n	141c <PIN_INT1_IRQHandler+0x88>
    13c6:	4b19      	ldr	r3, [pc, #100]	; (142c <PIN_INT1_IRQHandler+0x98>)
    13c8:	69db      	ldr	r3, [r3, #28]
    13ca:	f003 0302 	and.w	r3, r3, #2
    13ce:	2b00      	cmp	r3, #0
    13d0:	d00d      	beq.n	13ee <PIN_INT1_IRQHandler+0x5a>
    13d2:	4b16      	ldr	r3, [pc, #88]	; (142c <PIN_INT1_IRQHandler+0x98>)
    13d4:	685b      	ldr	r3, [r3, #4]
    13d6:	f003 0302 	and.w	r3, r3, #2
    13da:	2b00      	cmp	r3, #0
    13dc:	d007      	beq.n	13ee <PIN_INT1_IRQHandler+0x5a>
    13de:	4b15      	ldr	r3, [pc, #84]	; (1434 <PIN_INT1_IRQHandler+0xa0>)
    13e0:	681b      	ldr	r3, [r3, #0]
    13e2:	3301      	adds	r3, #1
    13e4:	4a13      	ldr	r2, [pc, #76]	; (1434 <PIN_INT1_IRQHandler+0xa0>)
    13e6:	6013      	str	r3, [r2, #0]
    13e8:	4b10      	ldr	r3, [pc, #64]	; (142c <PIN_INT1_IRQHandler+0x98>)
    13ea:	2202      	movs	r2, #2
    13ec:	61da      	str	r2, [r3, #28]
    13ee:	4b0f      	ldr	r3, [pc, #60]	; (142c <PIN_INT1_IRQHandler+0x98>)
    13f0:	6a1b      	ldr	r3, [r3, #32]
    13f2:	f003 0302 	and.w	r3, r3, #2
    13f6:	2b00      	cmp	r3, #0
    13f8:	d00d      	beq.n	1416 <PIN_INT1_IRQHandler+0x82>
    13fa:	4b0c      	ldr	r3, [pc, #48]	; (142c <PIN_INT1_IRQHandler+0x98>)
    13fc:	691b      	ldr	r3, [r3, #16]
    13fe:	f003 0302 	and.w	r3, r3, #2
    1402:	2b00      	cmp	r3, #0
    1404:	d007      	beq.n	1416 <PIN_INT1_IRQHandler+0x82>
    1406:	4b0c      	ldr	r3, [pc, #48]	; (1438 <PIN_INT1_IRQHandler+0xa4>)
    1408:	681b      	ldr	r3, [r3, #0]
    140a:	3301      	adds	r3, #1
    140c:	4a0a      	ldr	r2, [pc, #40]	; (1438 <PIN_INT1_IRQHandler+0xa4>)
    140e:	6013      	str	r3, [r2, #0]
    1410:	4b06      	ldr	r3, [pc, #24]	; (142c <PIN_INT1_IRQHandler+0x98>)
    1412:	2202      	movs	r2, #2
    1414:	621a      	str	r2, [r3, #32]
    1416:	4b05      	ldr	r3, [pc, #20]	; (142c <PIN_INT1_IRQHandler+0x98>)
    1418:	2202      	movs	r2, #2
    141a:	625a      	str	r2, [r3, #36]	; 0x24
    141c:	bf00      	nop
    141e:	46bd      	mov	sp, r7
    1420:	f85d 7b04 	ldr.w	r7, [sp], #4
    1424:	4770      	bx	lr
    1426:	bf00      	nop
    1428:	100002d4 	.word	0x100002d4
    142c:	4004c000 	.word	0x4004c000
    1430:	10000304 	.word	0x10000304
    1434:	10000308 	.word	0x10000308
    1438:	1000030c 	.word	0x1000030c

0000143c <PIN_INT2_IRQHandler>:
    143c:	b480      	push	{r7}
    143e:	af00      	add	r7, sp, #0
    1440:	4b23      	ldr	r3, [pc, #140]	; (14d0 <PIN_INT2_IRQHandler+0x94>)
    1442:	681b      	ldr	r3, [r3, #0]
    1444:	3301      	adds	r3, #1
    1446:	4a22      	ldr	r2, [pc, #136]	; (14d0 <PIN_INT2_IRQHandler+0x94>)
    1448:	6013      	str	r3, [r2, #0]
    144a:	4b22      	ldr	r3, [pc, #136]	; (14d4 <PIN_INT2_IRQHandler+0x98>)
    144c:	6a5b      	ldr	r3, [r3, #36]	; 0x24
    144e:	f003 0304 	and.w	r3, r3, #4
    1452:	2b00      	cmp	r3, #0
    1454:	d036      	beq.n	14c4 <PIN_INT2_IRQHandler+0x88>
    1456:	4b1f      	ldr	r3, [pc, #124]	; (14d4 <PIN_INT2_IRQHandler+0x98>)
    1458:	681b      	ldr	r3, [r3, #0]
    145a:	f003 0304 	and.w	r3, r3, #4
    145e:	2b00      	cmp	r3, #0
    1460:	d005      	beq.n	146e <PIN_INT2_IRQHandler+0x32>
    1462:	4b1d      	ldr	r3, [pc, #116]	; (14d8 <PIN_INT2_IRQHandler+0x9c>)
    1464:	681b      	ldr	r3, [r3, #0]
    1466:	3301      	adds	r3, #1
    1468:	4a1b      	ldr	r2, [pc, #108]	; (14d8 <PIN_INT2_IRQHandler+0x9c>)
    146a:	6013      	str	r3, [r2, #0]
    146c:	e02a      	b.n	14c4 <PIN_INT2_IRQHandler+0x88>
    146e:	4b19      	ldr	r3, [pc, #100]	; (14d4 <PIN_INT2_IRQHandler+0x98>)
    1470:	69db      	ldr	r3, [r3, #28]
    1472:	f003 0304 	and.w	r3, r3, #4
    1476:	2b00      	cmp	r3, #0
    1478:	d00d      	beq.n	1496 <PIN_INT2_IRQHandler+0x5a>
    147a:	4b16      	ldr	r3, [pc, #88]	; (14d4 <PIN_INT2_IRQHandler+0x98>)
    147c:	685b      	ldr	r3, [r3, #4]
    147e:	f003 0304 	and.w	r3, r3, #4
    1482:	2b00      	cmp	r3, #0
    1484:	d007      	beq.n	1496 <PIN_INT2_IRQHandler+0x5a>
    1486:	4b15      	ldr	r3, [pc, #84]	; (14dc <PIN_INT2_IRQHandler+0xa0>)
    1488:	681b      	ldr	r3, [r3, #0]
    148a:	3301      	adds	r3, #1
    148c:	4a13      	ldr	r2, [pc, #76]	; (14dc <PIN_INT2_IRQHandler+0xa0>)
    148e:	6013      	str	r3, [r2, #0]
    1490:	4b10      	ldr	r3, [pc, #64]	; (14d4 <PIN_INT2_IRQHandler+0x98>)
    1492:	2204      	movs	r2, #4
    1494:	61da      	str	r2, [r3, #28]
    1496:	4b0f      	ldr	r3, [pc, #60]	; (14d4 <PIN_INT2_IRQHandler+0x98>)
    1498:	6a1b      	ldr	r3, [r3, #32]
    149a:	f003 0304 	and.w	r3, r3, #4
    149e:	2b00      	cmp	r3, #0
    14a0:	d00d      	beq.n	14be <PIN_INT2_IRQHandler+0x82>
    14a2:	4b0c      	ldr	r3, [pc, #48]	; (14d4 <PIN_INT2_IRQHandler+0x98>)
    14a4:	691b      	ldr	r3, [r3, #16]
    14a6:	f003 0304 	and.w	r3, r3, #4
    14aa:	2b00      	cmp	r3, #0
    14ac:	d007      	beq.n	14be <PIN_INT2_IRQHandler+0x82>
    14ae:	4b0c      	ldr	r3, [pc, #48]	; (14e0 <PIN_INT2_IRQHandler+0xa4>)
    14b0:	681b      	ldr	r3, [r3, #0]
    14b2:	3301      	adds	r3, #1
    14b4:	4a0a      	ldr	r2, [pc, #40]	; (14e0 <PIN_INT2_IRQHandler+0xa4>)
    14b6:	6013      	str	r3, [r2, #0]
    14b8:	4b06      	ldr	r3, [pc, #24]	; (14d4 <PIN_INT2_IRQHandler+0x98>)
    14ba:	2204      	movs	r2, #4
    14bc:	621a      	str	r2, [r3, #32]
    14be:	4b05      	ldr	r3, [pc, #20]	; (14d4 <PIN_INT2_IRQHandler+0x98>)
    14c0:	2204      	movs	r2, #4
    14c2:	625a      	str	r2, [r3, #36]	; 0x24
    14c4:	bf00      	nop
    14c6:	46bd      	mov	sp, r7
    14c8:	f85d 7b04 	ldr.w	r7, [sp], #4
    14cc:	4770      	bx	lr
    14ce:	bf00      	nop
    14d0:	100002d8 	.word	0x100002d8
    14d4:	4004c000 	.word	0x4004c000
    14d8:	10000310 	.word	0x10000310
    14dc:	10000314 	.word	0x10000314
    14e0:	10000318 	.word	0x10000318

000014e4 <PIN_INT3_IRQHandler>:
    14e4:	b480      	push	{r7}
    14e6:	af00      	add	r7, sp, #0
    14e8:	4b23      	ldr	r3, [pc, #140]	; (1578 <PIN_INT3_IRQHandler+0x94>)
    14ea:	681b      	ldr	r3, [r3, #0]
    14ec:	3301      	adds	r3, #1
    14ee:	4a22      	ldr	r2, [pc, #136]	; (1578 <PIN_INT3_IRQHandler+0x94>)
    14f0:	6013      	str	r3, [r2, #0]
    14f2:	4b22      	ldr	r3, [pc, #136]	; (157c <PIN_INT3_IRQHandler+0x98>)
    14f4:	6a5b      	ldr	r3, [r3, #36]	; 0x24
    14f6:	f003 0308 	and.w	r3, r3, #8
    14fa:	2b00      	cmp	r3, #0
    14fc:	d036      	beq.n	156c <PIN_INT3_IRQHandler+0x88>
    14fe:	4b1f      	ldr	r3, [pc, #124]	; (157c <PIN_INT3_IRQHandler+0x98>)
    1500:	681b      	ldr	r3, [r3, #0]
    1502:	f003 0308 	and.w	r3, r3, #8
    1506:	2b00      	cmp	r3, #0
    1508:	d005      	beq.n	1516 <PIN_INT3_IRQHandler+0x32>
    150a:	4b1d      	ldr	r3, [pc, #116]	; (1580 <PIN_INT3_IRQHandler+0x9c>)
    150c:	681b      	ldr	r3, [r3, #0]
    150e:	3301      	adds	r3, #1
    1510:	4a1b      	ldr	r2, [pc, #108]	; (1580 <PIN_INT3_IRQHandler+0x9c>)
    1512:	6013      	str	r3, [r2, #0]
    1514:	e02a      	b.n	156c <PIN_INT3_IRQHandler+0x88>
    1516:	4b19      	ldr	r3, [pc, #100]	; (157c <PIN_INT3_IRQHandler+0x98>)
    1518:	69db      	ldr	r3, [r3, #28]
    151a:	f003 0308 	and.w	r3, r3, #8
    151e:	2b00      	cmp	r3, #0
    1520:	d00d      	beq.n	153e <PIN_INT3_IRQHandler+0x5a>
    1522:	4b16      	ldr	r3, [pc, #88]	; (157c <PIN_INT3_IRQHandler+0x98>)
    1524:	685b      	ldr	r3, [r3, #4]
    1526:	f003 0308 	and.w	r3, r3, #8
    152a:	2b00      	cmp	r3, #0
    152c:	d007      	beq.n	153e <PIN_INT3_IRQHandler+0x5a>
    152e:	4b15      	ldr	r3, [pc, #84]	; (1584 <PIN_INT3_IRQHandler+0xa0>)
    1530:	681b      	ldr	r3, [r3, #0]
    1532:	3301      	adds	r3, #1
    1534:	4a13      	ldr	r2, [pc, #76]	; (1584 <PIN_INT3_IRQHandler+0xa0>)
    1536:	6013      	str	r3, [r2, #0]
    1538:	4b10      	ldr	r3, [pc, #64]	; (157c <PIN_INT3_IRQHandler+0x98>)
    153a:	2208      	movs	r2, #8
    153c:	61da      	str	r2, [r3, #28]
    153e:	4b0f      	ldr	r3, [pc, #60]	; (157c <PIN_INT3_IRQHandler+0x98>)
    1540:	6a1b      	ldr	r3, [r3, #32]
    1542:	f003 0308 	and.w	r3, r3, #8
    1546:	2b00      	cmp	r3, #0
    1548:	d00d      	beq.n	1566 <PIN_INT3_IRQHandler+0x82>
    154a:	4b0c      	ldr	r3, [pc, #48]	; (157c <PIN_INT3_IRQHandler+0x98>)
    154c:	691b      	ldr	r3, [r3, #16]
    154e:	f003 0308 	and.w	r3, r3, #8
    1552:	2b00      	cmp	r3, #0
    1554:	d007      	beq.n	1566 <PIN_INT3_IRQHandler+0x82>
    1556:	4b0c      	ldr	r3, [pc, #48]	; (1588 <PIN_INT3_IRQHandler+0xa4>)
    1558:	681b      	ldr	r3, [r3, #0]
    155a:	3301      	adds	r3, #1
    155c:	4a0a      	ldr	r2, [pc, #40]	; (1588 <PIN_INT3_IRQHandler+0xa4>)
    155e:	6013      	str	r3, [r2, #0]
    1560:	4b06      	ldr	r3, [pc, #24]	; (157c <PIN_INT3_IRQHandler+0x98>)
    1562:	2208      	movs	r2, #8
    1564:	621a      	str	r2, [r3, #32]
    1566:	4b05      	ldr	r3, [pc, #20]	; (157c <PIN_INT3_IRQHandler+0x98>)
    1568:	2208      	movs	r2, #8
    156a:	625a      	str	r2, [r3, #36]	; 0x24
    156c:	bf00      	nop
    156e:	46bd      	mov	sp, r7
    1570:	f85d 7b04 	ldr.w	r7, [sp], #4
    1574:	4770      	bx	lr
    1576:	bf00      	nop
    1578:	100002dc 	.word	0x100002dc
    157c:	4004c000 	.word	0x4004c000
    1580:	1000031c 	.word	0x1000031c
    1584:	10000320 	.word	0x10000320
    1588:	10000324 	.word	0x10000324

0000158c <PIN_INT4_IRQHandler>:
    158c:	b480      	push	{r7}
    158e:	af00      	add	r7, sp, #0
    1590:	4b23      	ldr	r3, [pc, #140]	; (1620 <PIN_INT4_IRQHandler+0x94>)
    1592:	681b      	ldr	r3, [r3, #0]
    1594:	3301      	adds	r3, #1
    1596:	4a22      	ldr	r2, [pc, #136]	; (1620 <PIN_INT4_IRQHandler+0x94>)
    1598:	6013      	str	r3, [r2, #0]
    159a:	4b22      	ldr	r3, [pc, #136]	; (1624 <PIN_INT4_IRQHandler+0x98>)
    159c:	6a5b      	ldr	r3, [r3, #36]	; 0x24
    159e:	f003 0310 	and.w	r3, r3, #16
    15a2:	2b00      	cmp	r3, #0
    15a4:	d036      	beq.n	1614 <PIN_INT4_IRQHandler+0x88>
    15a6:	4b1f      	ldr	r3, [pc, #124]	; (1624 <PIN_INT4_IRQHandler+0x98>)
    15a8:	681b      	ldr	r3, [r3, #0]
    15aa:	f003 0310 	and.w	r3, r3, #16
    15ae:	2b00      	cmp	r3, #0
    15b0:	d005      	beq.n	15be <PIN_INT4_IRQHandler+0x32>
    15b2:	4b1d      	ldr	r3, [pc, #116]	; (1628 <PIN_INT4_IRQHandler+0x9c>)
    15b4:	681b      	ldr	r3, [r3, #0]
    15b6:	3301      	adds	r3, #1
    15b8:	4a1b      	ldr	r2, [pc, #108]	; (1628 <PIN_INT4_IRQHandler+0x9c>)
    15ba:	6013      	str	r3, [r2, #0]
    15bc:	e02a      	b.n	1614 <PIN_INT4_IRQHandler+0x88>
    15be:	4b19      	ldr	r3, [pc, #100]	; (1624 <PIN_INT4_IRQHandler+0x98>)
    15c0:	69db      	ldr	r3, [r3, #28]
    15c2:	f003 0310 	and.w	r3, r3, #16
    15c6:	2b00      	cmp	r3, #0
    15c8:	d00d      	beq.n	15e6 <PIN_INT4_IRQHandler+0x5a>
    15ca:	4b16      	ldr	r3, [pc, #88]	; (1624 <PIN_INT4_IRQHandler+0x98>)
    15cc:	685b      	ldr	r3, [r3, #4]
    15ce:	f003 0310 	and.w	r3, r3, #16
    15d2:	2b00      	cmp	r3, #0
    15d4:	d007      	beq.n	15e6 <PIN_INT4_IRQHandler+0x5a>
    15d6:	4b15      	ldr	r3, [pc, #84]	; (162c <PIN_INT4_IRQHandler+0xa0>)
    15d8:	681b      	ldr	r3, [r3, #0]
    15da:	3301      	adds	r3, #1
    15dc:	4a13      	ldr	r2, [pc, #76]	; (162c <PIN_INT4_IRQHandler+0xa0>)
    15de:	6013      	str	r3, [r2, #0]
    15e0:	4b10      	ldr	r3, [pc, #64]	; (1624 <PIN_INT4_IRQHandler+0x98>)
    15e2:	2210      	movs	r2, #16
    15e4:	61da      	str	r2, [r3, #28]
    15e6:	4b0f      	ldr	r3, [pc, #60]	; (1624 <PIN_INT4_IRQHandler+0x98>)
    15e8:	6a1b      	ldr	r3, [r3, #32]
    15ea:	f003 0310 	and.w	r3, r3, #16
    15ee:	2b00      	cmp	r3, #0
    15f0:	d00d      	beq.n	160e <PIN_INT4_IRQHandler+0x82>
    15f2:	4b0c      	ldr	r3, [pc, #48]	; (1624 <PIN_INT4_IRQHandler+0x98>)
    15f4:	691b      	ldr	r3, [r3, #16]
    15f6:	f003 0310 	and.w	r3, r3, #16
    15fa:	2b00      	cmp	r3, #0
    15fc:	d007      	beq.n	160e <PIN_INT4_IRQHandler+0x82>
    15fe:	4b0c      	ldr	r3, [pc, #48]	; (1630 <PIN_INT4_IRQHandler+0xa4>)
    1600:	681b      	ldr	r3, [r3, #0]
    1602:	3301      	adds	r3, #1
    1604:	4a0a      	ldr	r2, [pc, #40]	; (1630 <PIN_INT4_IRQHandler+0xa4>)
    1606:	6013      	str	r3, [r2, #0]
    1608:	4b06      	ldr	r3, [pc, #24]	; (1624 <PIN_INT4_IRQHandler+0x98>)
    160a:	2210      	movs	r2, #16
    160c:	621a      	str	r2, [r3, #32]
    160e:	4b05      	ldr	r3, [pc, #20]	; (1624 <PIN_INT4_IRQHandler+0x98>)
    1610:	2210      	movs	r2, #16
    1612:	625a      	str	r2, [r3, #36]	; 0x24
    1614:	bf00      	nop
    1616:	46bd      	mov	sp, r7
    1618:	f85d 7b04 	ldr.w	r7, [sp], #4
    161c:	4770      	bx	lr
    161e:	bf00      	nop
    1620:	100002e0 	.word	0x100002e0
    1624:	4004c000 	.word	0x4004c000
    1628:	10000328 	.word	0x10000328
    162c:	1000032c 	.word	0x1000032c
    1630:	10000330 	.word	0x10000330

00001634 <PIN_INT5_IRQHandler>:
    1634:	b480      	push	{r7}
    1636:	af00      	add	r7, sp, #0
    1638:	4b23      	ldr	r3, [pc, #140]	; (16c8 <PIN_INT5_IRQHandler+0x94>)
    163a:	681b      	ldr	r3, [r3, #0]
    163c:	3301      	adds	r3, #1
    163e:	4a22      	ldr	r2, [pc, #136]	; (16c8 <PIN_INT5_IRQHandler+0x94>)
    1640:	6013      	str	r3, [r2, #0]
    1642:	4b22      	ldr	r3, [pc, #136]	; (16cc <PIN_INT5_IRQHandler+0x98>)
    1644:	6a5b      	ldr	r3, [r3, #36]	; 0x24
    1646:	f003 0320 	and.w	r3, r3, #32
    164a:	2b00      	cmp	r3, #0
    164c:	d036      	beq.n	16bc <PIN_INT5_IRQHandler+0x88>
    164e:	4b1f      	ldr	r3, [pc, #124]	; (16cc <PIN_INT5_IRQHandler+0x98>)
    1650:	681b      	ldr	r3, [r3, #0]
    1652:	f003 0320 	and.w	r3, r3, #32
    1656:	2b00      	cmp	r3, #0
    1658:	d005      	beq.n	1666 <PIN_INT5_IRQHandler+0x32>
    165a:	4b1d      	ldr	r3, [pc, #116]	; (16d0 <PIN_INT5_IRQHandler+0x9c>)
    165c:	681b      	ldr	r3, [r3, #0]
    165e:	3301      	adds	r3, #1
    1660:	4a1b      	ldr	r2, [pc, #108]	; (16d0 <PIN_INT5_IRQHandler+0x9c>)
    1662:	6013      	str	r3, [r2, #0]
    1664:	e02a      	b.n	16bc <PIN_INT5_IRQHandler+0x88>
    1666:	4b19      	ldr	r3, [pc, #100]	; (16cc <PIN_INT5_IRQHandler+0x98>)
    1668:	69db      	ldr	r3, [r3, #28]
    166a:	f003 0320 	and.w	r3, r3, #32
    166e:	2b00      	cmp	r3, #0
    1670:	d00d      	beq.n	168e <PIN_INT5_IRQHandler+0x5a>
    1672:	4b16      	ldr	r3, [pc, #88]	; (16cc <PIN_INT5_IRQHandler+0x98>)
    1674:	685b      	ldr	r3, [r3, #4]
    1676:	f003 0320 	and.w	r3, r3, #32
    167a:	2b00      	cmp	r3, #0
    167c:	d007      	beq.n	168e <PIN_INT5_IRQHandler+0x5a>
    167e:	4b15      	ldr	r3, [pc, #84]	; (16d4 <PIN_INT5_IRQHandler+0xa0>)
    1680:	681b      	ldr	r3, [r3, #0]
    1682:	3301      	adds	r3, #1
    1684:	4a13      	ldr	r2, [pc, #76]	; (16d4 <PIN_INT5_IRQHandler+0xa0>)
    1686:	6013      	str	r3, [r2, #0]
    1688:	4b10      	ldr	r3, [pc, #64]	; (16cc <PIN_INT5_IRQHandler+0x98>)
    168a:	2220      	movs	r2, #32
    168c:	61da      	str	r2, [r3, #28]
    168e:	4b0f      	ldr	r3, [pc, #60]	; (16cc <PIN_INT5_IRQHandler+0x98>)
    1690:	6a1b      	ldr	r3, [r3, #32]
    1692:	f003 0320 	and.w	r3, r3, #32
    1696:	2b00      	cmp	r3, #0
    1698:	d00d      	beq.n	16b6 <PIN_INT5_IRQHandler+0x82>
    169a:	4b0c      	ldr	r3, [pc, #48]	; (16cc <PIN_INT5_IRQHandler+0x98>)
    169c:	691b      	ldr	r3, [r3, #16]
    169e:	f003 0320 	and.w	r3, r3, #32
    16a2:	2b00      	cmp	r3, #0
    16a4:	d007      	beq.n	16b6 <PIN_INT5_IRQHandler+0x82>
    16a6:	4b0c      	ldr	r3, [pc, #48]	; (16d8 <PIN_INT5_IRQHandler+0xa4>)
    16a8:	681b      	ldr	r3, [r3, #0]
    16aa:	3301      	adds	r3, #1
    16ac:	4a0a      	ldr	r2, [pc, #40]	; (16d8 <PIN_INT5_IRQHandler+0xa4>)
    16ae:	6013      	str	r3, [r2, #0]
    16b0:	4b06      	ldr	r3, [pc, #24]	; (16cc <PIN_INT5_IRQHandler+0x98>)
    16b2:	2220      	movs	r2, #32
    16b4:	621a      	str	r2, [r3, #32]
    16b6:	4b05      	ldr	r3, [pc, #20]	; (16cc <PIN_INT5_IRQHandler+0x98>)
    16b8:	2220      	movs	r2, #32
    16ba:	625a      	str	r2, [r3, #36]	; 0x24
    16bc:	bf00      	nop
    16be:	46bd      	mov	sp, r7
    16c0:	f85d 7b04 	ldr.w	r7, [sp], #4
    16c4:	4770      	bx	lr
    16c6:	bf00      	nop
    16c8:	100002e4 	.word	0x100002e4
    16cc:	4004c000 	.word	0x4004c000
    16d0:	10000334 	.word	0x10000334
    16d4:	10000338 	.word	0x10000338
    16d8:	1000033c 	.word	0x1000033c

000016dc <PIN_INT6_IRQHandler>:
    16dc:	b480      	push	{r7}
    16de:	af00      	add	r7, sp, #0
    16e0:	4b23      	ldr	r3, [pc, #140]	; (1770 <PIN_INT6_IRQHandler+0x94>)
    16e2:	681b      	ldr	r3, [r3, #0]
    16e4:	3301      	adds	r3, #1
    16e6:	4a22      	ldr	r2, [pc, #136]	; (1770 <PIN_INT6_IRQHandler+0x94>)
    16e8:	6013      	str	r3, [r2, #0]
    16ea:	4b22      	ldr	r3, [pc, #136]	; (1774 <PIN_INT6_IRQHandler+0x98>)
    16ec:	6a5b      	ldr	r3, [r3, #36]	; 0x24
    16ee:	f003 0340 	and.w	r3, r3, #64	; 0x40
    16f2:	2b00      	cmp	r3, #0
    16f4:	d036      	beq.n	1764 <PIN_INT6_IRQHandler+0x88>
    16f6:	4b1f      	ldr	r3, [pc, #124]	; (1774 <PIN_INT6_IRQHandler+0x98>)
    16f8:	681b      	ldr	r3, [r3, #0]
    16fa:	f003 0340 	and.w	r3, r3, #64	; 0x40
    16fe:	2b00      	cmp	r3, #0
    1700:	d005      	beq.n	170e <PIN_INT6_IRQHandler+0x32>
    1702:	4b1d      	ldr	r3, [pc, #116]	; (1778 <PIN_INT6_IRQHandler+0x9c>)
    1704:	681b      	ldr	r3, [r3, #0]
    1706:	3301      	adds	r3, #1
    1708:	4a1b      	ldr	r2, [pc, #108]	; (1778 <PIN_INT6_IRQHandler+0x9c>)
    170a:	6013      	str	r3, [r2, #0]
    170c:	e02a      	b.n	1764 <PIN_INT6_IRQHandler+0x88>
    170e:	4b19      	ldr	r3, [pc, #100]	; (1774 <PIN_INT6_IRQHandler+0x98>)
    1710:	69db      	ldr	r3, [r3, #28]
    1712:	f003 0340 	and.w	r3, r3, #64	; 0x40
    1716:	2b00      	cmp	r3, #0
    1718:	d00d      	beq.n	1736 <PIN_INT6_IRQHandler+0x5a>
    171a:	4b16      	ldr	r3, [pc, #88]	; (1774 <PIN_INT6_IRQHandler+0x98>)
    171c:	685b      	ldr	r3, [r3, #4]
    171e:	f003 0340 	and.w	r3, r3, #64	; 0x40
    1722:	2b00      	cmp	r3, #0
    1724:	d007      	beq.n	1736 <PIN_INT6_IRQHandler+0x5a>
    1726:	4b15      	ldr	r3, [pc, #84]	; (177c <PIN_INT6_IRQHandler+0xa0>)
    1728:	681b      	ldr	r3, [r3, #0]
    172a:	3301      	adds	r3, #1
    172c:	4a13      	ldr	r2, [pc, #76]	; (177c <PIN_INT6_IRQHandler+0xa0>)
    172e:	6013      	str	r3, [r2, #0]
    1730:	4b10      	ldr	r3, [pc, #64]	; (1774 <PIN_INT6_IRQHandler+0x98>)
    1732:	2240      	movs	r2, #64	; 0x40
    1734:	61da      	str	r2, [r3, #28]
    1736:	4b0f      	ldr	r3, [pc, #60]	; (1774 <PIN_INT6_IRQHandler+0x98>)
    1738:	6a1b      	ldr	r3, [r3, #32]
    173a:	f003 0340 	and.w	r3, r3, #64	; 0x40
    173e:	2b00      	cmp	r3, #0
    1740:	d00d      	beq.n	175e <PIN_INT6_IRQHandler+0x82>
    1742:	4b0c      	ldr	r3, [pc, #48]	; (1774 <PIN_INT6_IRQHandler+0x98>)
    1744:	691b      	ldr	r3, [r3, #16]
    1746:	f003 0340 	and.w	r3, r3, #64	; 0x40
    174a:	2b00      	cmp	r3, #0
    174c:	d007      	beq.n	175e <PIN_INT6_IRQHandler+0x82>
    174e:	4b0c      	ldr	r3, [pc, #48]	; (1780 <PIN_INT6_IRQHandler+0xa4>)
    1750:	681b      	ldr	r3, [r3, #0]
    1752:	3301      	adds	r3, #1
    1754:	4a0a      	ldr	r2, [pc, #40]	; (1780 <PIN_INT6_IRQHandler+0xa4>)
    1756:	6013      	str	r3, [r2, #0]
    1758:	4b06      	ldr	r3, [pc, #24]	; (1774 <PIN_INT6_IRQHandler+0x98>)
    175a:	2240      	movs	r2, #64	; 0x40
    175c:	621a      	str	r2, [r3, #32]
    175e:	4b05      	ldr	r3, [pc, #20]	; (1774 <PIN_INT6_IRQHandler+0x98>)
    1760:	2240      	movs	r2, #64	; 0x40
    1762:	625a      	str	r2, [r3, #36]	; 0x24
    1764:	bf00      	nop
    1766:	46bd      	mov	sp, r7
    1768:	f85d 7b04 	ldr.w	r7, [sp], #4
    176c:	4770      	bx	lr
    176e:	bf00      	nop
    1770:	100002e8 	.word	0x100002e8
    1774:	4004c000 	.word	0x4004c000
    1778:	10000340 	.word	0x10000340
    177c:	10000344 	.word	0x10000344
    1780:	10000348 	.word	0x10000348

00001784 <PIN_INT7_IRQHandler>:
    1784:	b480      	push	{r7}
    1786:	af00      	add	r7, sp, #0
    1788:	4b23      	ldr	r3, [pc, #140]	; (1818 <PIN_INT7_IRQHandler+0x94>)
    178a:	681b      	ldr	r3, [r3, #0]
    178c:	3301      	adds	r3, #1
    178e:	4a22      	ldr	r2, [pc, #136]	; (1818 <PIN_INT7_IRQHandler+0x94>)
    1790:	6013      	str	r3, [r2, #0]
    1792:	4b22      	ldr	r3, [pc, #136]	; (181c <PIN_INT7_IRQHandler+0x98>)
    1794:	6a5b      	ldr	r3, [r3, #36]	; 0x24
    1796:	f003 0380 	and.w	r3, r3, #128	; 0x80
    179a:	2b00      	cmp	r3, #0
    179c:	d036      	beq.n	180c <PIN_INT7_IRQHandler+0x88>
    179e:	4b1f      	ldr	r3, [pc, #124]	; (181c <PIN_INT7_IRQHandler+0x98>)
    17a0:	681b      	ldr	r3, [r3, #0]
    17a2:	f003 0380 	and.w	r3, r3, #128	; 0x80
    17a6:	2b00      	cmp	r3, #0
    17a8:	d005      	beq.n	17b6 <PIN_INT7_IRQHandler+0x32>
    17aa:	4b1d      	ldr	r3, [pc, #116]	; (1820 <PIN_INT7_IRQHandler+0x9c>)
    17ac:	681b      	ldr	r3, [r3, #0]
    17ae:	3301      	adds	r3, #1
    17b0:	4a1b      	ldr	r2, [pc, #108]	; (1820 <PIN_INT7_IRQHandler+0x9c>)
    17b2:	6013      	str	r3, [r2, #0]
    17b4:	e02a      	b.n	180c <PIN_INT7_IRQHandler+0x88>
    17b6:	4b19      	ldr	r3, [pc, #100]	; (181c <PIN_INT7_IRQHandler+0x98>)
    17b8:	69db      	ldr	r3, [r3, #28]
    17ba:	f003 0380 	and.w	r3, r3, #128	; 0x80
    17be:	2b00      	cmp	r3, #0
    17c0:	d00d      	beq.n	17de <PIN_INT7_IRQHandler+0x5a>
    17c2:	4b16      	ldr	r3, [pc, #88]	; (181c <PIN_INT7_IRQHandler+0x98>)
    17c4:	685b      	ldr	r3, [r3, #4]
    17c6:	f003 0380 	and.w	r3, r3, #128	; 0x80
    17ca:	2b00      	cmp	r3, #0
    17cc:	d007      	beq.n	17de <PIN_INT7_IRQHandler+0x5a>
    17ce:	4b15      	ldr	r3, [pc, #84]	; (1824 <PIN_INT7_IRQHandler+0xa0>)
    17d0:	681b      	ldr	r3, [r3, #0]
    17d2:	3301      	adds	r3, #1
    17d4:	4a13      	ldr	r2, [pc, #76]	; (1824 <PIN_INT7_IRQHandler+0xa0>)
    17d6:	6013      	str	r3, [r2, #0]
    17d8:	4b10      	ldr	r3, [pc, #64]	; (181c <PIN_INT7_IRQHandler+0x98>)
    17da:	2280      	movs	r2, #128	; 0x80
    17dc:	61da      	str	r2, [r3, #28]
    17de:	4b0f      	ldr	r3, [pc, #60]	; (181c <PIN_INT7_IRQHandler+0x98>)
    17e0:	6a1b      	ldr	r3, [r3, #32]
    17e2:	f003 0380 	and.w	r3, r3, #128	; 0x80
    17e6:	2b00      	cmp	r3, #0
    17e8:	d00d      	beq.n	1806 <PIN_INT7_IRQHandler+0x82>
    17ea:	4b0c      	ldr	r3, [pc, #48]	; (181c <PIN_INT7_IRQHandler+0x98>)
    17ec:	691b      	ldr	r3, [r3, #16]
    17ee:	f003 0380 	and.w	r3, r3, #128	; 0x80
    17f2:	2b00      	cmp	r3, #0
    17f4:	d007      	beq.n	1806 <PIN_INT7_IRQHandler+0x82>
    17f6:	4b0c      	ldr	r3, [pc, #48]	; (1828 <PIN_INT7_IRQHandler+0xa4>)
    17f8:	681b      	ldr	r3, [r3, #0]
    17fa:	3301      	adds	r3, #1
    17fc:	4a0a      	ldr	r2, [pc, #40]	; (1828 <PIN_INT7_IRQHandler+0xa4>)
    17fe:	6013      	str	r3, [r2, #0]
    1800:	4b06      	ldr	r3, [pc, #24]	; (181c <PIN_INT7_IRQHandler+0x98>)
    1802:	2280      	movs	r2, #128	; 0x80
    1804:	621a      	str	r2, [r3, #32]
    1806:	4b05      	ldr	r3, [pc, #20]	; (181c <PIN_INT7_IRQHandler+0x98>)
    1808:	2280      	movs	r2, #128	; 0x80
    180a:	625a      	str	r2, [r3, #36]	; 0x24
    180c:	bf00      	nop
    180e:	46bd      	mov	sp, r7
    1810:	f85d 7b04 	ldr.w	r7, [sp], #4
    1814:	4770      	bx	lr
    1816:	bf00      	nop
    1818:	100002ec 	.word	0x100002ec
    181c:	4004c000 	.word	0x4004c000
    1820:	1000034c 	.word	0x1000034c
    1824:	10000350 	.word	0x10000350
    1828:	10000354 	.word	0x10000354

0000182c <GINT0_IRQHandler>:
    182c:	b480      	push	{r7}
    182e:	af00      	add	r7, sp, #0
    1830:	4b13      	ldr	r3, [pc, #76]	; (1880 <GINT0_IRQHandler+0x54>)
    1832:	681b      	ldr	r3, [r3, #0]
    1834:	3301      	adds	r3, #1
    1836:	4a12      	ldr	r2, [pc, #72]	; (1880 <GINT0_IRQHandler+0x54>)
    1838:	6013      	str	r3, [r2, #0]
    183a:	4b12      	ldr	r3, [pc, #72]	; (1884 <GINT0_IRQHandler+0x58>)
    183c:	681b      	ldr	r3, [r3, #0]
    183e:	f003 0301 	and.w	r3, r3, #1
    1842:	2b00      	cmp	r3, #0
    1844:	d016      	beq.n	1874 <GINT0_IRQHandler+0x48>
    1846:	4b0f      	ldr	r3, [pc, #60]	; (1884 <GINT0_IRQHandler+0x58>)
    1848:	681b      	ldr	r3, [r3, #0]
    184a:	f003 0304 	and.w	r3, r3, #4
    184e:	2b00      	cmp	r3, #0
    1850:	d005      	beq.n	185e <GINT0_IRQHandler+0x32>
    1852:	4b0d      	ldr	r3, [pc, #52]	; (1888 <GINT0_IRQHandler+0x5c>)
    1854:	681b      	ldr	r3, [r3, #0]
    1856:	3301      	adds	r3, #1
    1858:	4a0b      	ldr	r2, [pc, #44]	; (1888 <GINT0_IRQHandler+0x5c>)
    185a:	6013      	str	r3, [r2, #0]
    185c:	e004      	b.n	1868 <GINT0_IRQHandler+0x3c>
    185e:	4b0b      	ldr	r3, [pc, #44]	; (188c <GINT0_IRQHandler+0x60>)
    1860:	681b      	ldr	r3, [r3, #0]
    1862:	3301      	adds	r3, #1
    1864:	4a09      	ldr	r2, [pc, #36]	; (188c <GINT0_IRQHandler+0x60>)
    1866:	6013      	str	r3, [r2, #0]
    1868:	4a06      	ldr	r2, [pc, #24]	; (1884 <GINT0_IRQHandler+0x58>)
    186a:	4b06      	ldr	r3, [pc, #24]	; (1884 <GINT0_IRQHandler+0x58>)
    186c:	681b      	ldr	r3, [r3, #0]
    186e:	f043 0301 	orr.w	r3, r3, #1
    1872:	6013      	str	r3, [r2, #0]
    1874:	bf00      	nop
    1876:	46bd      	mov	sp, r7
    1878:	f85d 7b04 	ldr.w	r7, [sp], #4
    187c:	4770      	bx	lr
    187e:	bf00      	nop
    1880:	100002f0 	.word	0x100002f0
    1884:	4005c000 	.word	0x4005c000
    1888:	10000358 	.word	0x10000358
    188c:	1000035c 	.word	0x1000035c

00001890 <GINT1_IRQHandler>:
    1890:	b480      	push	{r7}
    1892:	af00      	add	r7, sp, #0
    1894:	4b13      	ldr	r3, [pc, #76]	; (18e4 <GINT1_IRQHandler+0x54>)
    1896:	681b      	ldr	r3, [r3, #0]
    1898:	3301      	adds	r3, #1
    189a:	4a12      	ldr	r2, [pc, #72]	; (18e4 <GINT1_IRQHandler+0x54>)
    189c:	6013      	str	r3, [r2, #0]
    189e:	4b12      	ldr	r3, [pc, #72]	; (18e8 <GINT1_IRQHandler+0x58>)
    18a0:	681b      	ldr	r3, [r3, #0]
    18a2:	f003 0301 	and.w	r3, r3, #1
    18a6:	2b00      	cmp	r3, #0
    18a8:	d016      	beq.n	18d8 <GINT1_IRQHandler+0x48>
    18aa:	4b0f      	ldr	r3, [pc, #60]	; (18e8 <GINT1_IRQHandler+0x58>)
    18ac:	681b      	ldr	r3, [r3, #0]
    18ae:	f003 0304 	and.w	r3, r3, #4
    18b2:	2b00      	cmp	r3, #0
    18b4:	d005      	beq.n	18c2 <GINT1_IRQHandler+0x32>
    18b6:	4b0d      	ldr	r3, [pc, #52]	; (18ec <GINT1_IRQHandler+0x5c>)
    18b8:	681b      	ldr	r3, [r3, #0]
    18ba:	3301      	adds	r3, #1
    18bc:	4a0b      	ldr	r2, [pc, #44]	; (18ec <GINT1_IRQHandler+0x5c>)
    18be:	6013      	str	r3, [r2, #0]
    18c0:	e004      	b.n	18cc <GINT1_IRQHandler+0x3c>
    18c2:	4b0b      	ldr	r3, [pc, #44]	; (18f0 <GINT1_IRQHandler+0x60>)
    18c4:	681b      	ldr	r3, [r3, #0]
    18c6:	3301      	adds	r3, #1
    18c8:	4a09      	ldr	r2, [pc, #36]	; (18f0 <GINT1_IRQHandler+0x60>)
    18ca:	6013      	str	r3, [r2, #0]
    18cc:	4a06      	ldr	r2, [pc, #24]	; (18e8 <GINT1_IRQHandler+0x58>)
    18ce:	4b06      	ldr	r3, [pc, #24]	; (18e8 <GINT1_IRQHandler+0x58>)
    18d0:	681b      	ldr	r3, [r3, #0]
    18d2:	f043 0301 	orr.w	r3, r3, #1
    18d6:	6013      	str	r3, [r2, #0]
    18d8:	bf00      	nop
    18da:	46bd      	mov	sp, r7
    18dc:	f85d 7b04 	ldr.w	r7, [sp], #4
    18e0:	4770      	bx	lr
    18e2:	bf00      	nop
    18e4:	100002f4 	.word	0x100002f4
    18e8:	40060000 	.word	0x40060000
    18ec:	10000360 	.word	0x10000360
    18f0:	10000364 	.word	0x10000364

000018f4 <GPIOInit>:
    18f4:	b480      	push	{r7}
    18f6:	af00      	add	r7, sp, #0
    18f8:	4a0a      	ldr	r2, [pc, #40]	; (1924 <GPIOInit+0x30>)
    18fa:	4b0a      	ldr	r3, [pc, #40]	; (1924 <GPIOInit+0x30>)
    18fc:	f8d3 3080 	ldr.w	r3, [r3, #128]	; 0x80
    1900:	f043 0340 	orr.w	r3, r3, #64	; 0x40
    1904:	f8c2 3080 	str.w	r3, [r2, #128]	; 0x80
    1908:	4a06      	ldr	r2, [pc, #24]	; (1924 <GPIOInit+0x30>)
    190a:	4b06      	ldr	r3, [pc, #24]	; (1924 <GPIOInit+0x30>)
    190c:	f8d3 3080 	ldr.w	r3, [r3, #128]	; 0x80
    1910:	f043 73c4 	orr.w	r3, r3, #25690112	; 0x1880000
    1914:	f8c2 3080 	str.w	r3, [r2, #128]	; 0x80
    1918:	bf00      	nop
    191a:	46bd      	mov	sp, r7
    191c:	f85d 7b04 	ldr.w	r7, [sp], #4
    1920:	4770      	bx	lr
    1922:	bf00      	nop
    1924:	40048000 	.word	0x40048000

00001928 <GPIOSetPinInterrupt>:
    1928:	b580      	push	{r7, lr}
    192a:	b084      	sub	sp, #16
    192c:	af00      	add	r7, sp, #0
    192e:	60f8      	str	r0, [r7, #12]
    1930:	60b9      	str	r1, [r7, #8]
    1932:	607a      	str	r2, [r7, #4]
    1934:	603b      	str	r3, [r7, #0]
    1936:	68fb      	ldr	r3, [r7, #12]
    1938:	2b07      	cmp	r3, #7
    193a:	f200 809b 	bhi.w	1a74 <GPIOSetPinInterrupt+0x14c>
    193e:	a201      	add	r2, pc, #4	; (adr r2, 1944 <GPIOSetPinInterrupt+0x1c>)
    1940:	f852 f023 	ldr.w	pc, [r2, r3, lsl #2]
    1944:	00001965 	.word	0x00001965
    1948:	00001987 	.word	0x00001987
    194c:	000019a9 	.word	0x000019a9
    1950:	000019cb 	.word	0x000019cb
    1954:	000019ed 	.word	0x000019ed
    1958:	00001a0f 	.word	0x00001a0f
    195c:	00001a31 	.word	0x00001a31
    1960:	00001a53 	.word	0x00001a53
    1964:	68bb      	ldr	r3, [r7, #8]
    1966:	2b00      	cmp	r3, #0
    1968:	d005      	beq.n	1976 <GPIOSetPinInterrupt+0x4e>
    196a:	4a6b      	ldr	r2, [pc, #428]	; (1b18 <GPIOSetPinInterrupt+0x1f0>)
    196c:	687b      	ldr	r3, [r7, #4]
    196e:	3318      	adds	r3, #24
    1970:	f8c2 3178 	str.w	r3, [r2, #376]	; 0x178
    1974:	e003      	b.n	197e <GPIOSetPinInterrupt+0x56>
    1976:	4a68      	ldr	r2, [pc, #416]	; (1b18 <GPIOSetPinInterrupt+0x1f0>)
    1978:	687b      	ldr	r3, [r7, #4]
    197a:	f8c2 3178 	str.w	r3, [r2, #376]	; 0x178
    197e:	2000      	movs	r0, #0
    1980:	f7ff fc82 	bl	1288 <NVIC_EnableIRQ>
    1984:	e077      	b.n	1a76 <GPIOSetPinInterrupt+0x14e>
    1986:	68bb      	ldr	r3, [r7, #8]
    1988:	2b00      	cmp	r3, #0
    198a:	d005      	beq.n	1998 <GPIOSetPinInterrupt+0x70>
    198c:	4a62      	ldr	r2, [pc, #392]	; (1b18 <GPIOSetPinInterrupt+0x1f0>)
    198e:	687b      	ldr	r3, [r7, #4]
    1990:	3318      	adds	r3, #24
    1992:	f8c2 317c 	str.w	r3, [r2, #380]	; 0x17c
    1996:	e003      	b.n	19a0 <GPIOSetPinInterrupt+0x78>
    1998:	4a5f      	ldr	r2, [pc, #380]	; (1b18 <GPIOSetPinInterrupt+0x1f0>)
    199a:	687b      	ldr	r3, [r7, #4]
    199c:	f8c2 317c 	str.w	r3, [r2, #380]	; 0x17c
    19a0:	2001      	movs	r0, #1
    19a2:	f7ff fc71 	bl	1288 <NVIC_EnableIRQ>
    19a6:	e066      	b.n	1a76 <GPIOSetPinInterrupt+0x14e>
    19a8:	68bb      	ldr	r3, [r7, #8]
    19aa:	2b00      	cmp	r3, #0
    19ac:	d005      	beq.n	19ba <GPIOSetPinInterrupt+0x92>
    19ae:	4a5a      	ldr	r2, [pc, #360]	; (1b18 <GPIOSetPinInterrupt+0x1f0>)
    19b0:	687b      	ldr	r3, [r7, #4]
    19b2:	3318      	adds	r3, #24
    19b4:	f8c2 3180 	str.w	r3, [r2, #384]	; 0x180
    19b8:	e003      	b.n	19c2 <GPIOSetPinInterrupt+0x9a>
    19ba:	4a57      	ldr	r2, [pc, #348]	; (1b18 <GPIOSetPinInterrupt+0x1f0>)
    19bc:	687b      	ldr	r3, [r7, #4]
    19be:	f8c2 3180 	str.w	r3, [r2, #384]	; 0x180
    19c2:	2002      	movs	r0, #2
    19c4:	f7ff fc60 	bl	1288 <NVIC_EnableIRQ>
    19c8:	e055      	b.n	1a76 <GPIOSetPinInterrupt+0x14e>
    19ca:	68bb      	ldr	r3, [r7, #8]
    19cc:	2b00      	cmp	r3, #0
    19ce:	d005      	beq.n	19dc <GPIOSetPinInterrupt+0xb4>
    19d0:	4a51      	ldr	r2, [pc, #324]	; (1b18 <GPIOSetPinInterrupt+0x1f0>)
    19d2:	687b      	ldr	r3, [r7, #4]
    19d4:	3318      	adds	r3, #24
    19d6:	f8c2 3184 	str.w	r3, [r2, #388]	; 0x184
    19da:	e003      	b.n	19e4 <GPIOSetPinInterrupt+0xbc>
    19dc:	4a4e      	ldr	r2, [pc, #312]	; (1b18 <GPIOSetPinInterrupt+0x1f0>)
    19de:	687b      	ldr	r3, [r7, #4]
    19e0:	f8c2 3184 	str.w	r3, [r2, #388]	; 0x184
    19e4:	2003      	movs	r0, #3
    19e6:	f7ff fc4f 	bl	1288 <NVIC_EnableIRQ>
    19ea:	e044      	b.n	1a76 <GPIOSetPinInterrupt+0x14e>
    19ec:	68bb      	ldr	r3, [r7, #8]
    19ee:	2b00      	cmp	r3, #0
    19f0:	d005      	beq.n	19fe <GPIOSetPinInterrupt+0xd6>
    19f2:	4a49      	ldr	r2, [pc, #292]	; (1b18 <GPIOSetPinInterrupt+0x1f0>)
    19f4:	687b      	ldr	r3, [r7, #4]
    19f6:	3318      	adds	r3, #24
    19f8:	f8c2 3188 	str.w	r3, [r2, #392]	; 0x188
    19fc:	e003      	b.n	1a06 <GPIOSetPinInterrupt+0xde>
    19fe:	4a46      	ldr	r2, [pc, #280]	; (1b18 <GPIOSetPinInterrupt+0x1f0>)
    1a00:	687b      	ldr	r3, [r7, #4]
    1a02:	f8c2 3188 	str.w	r3, [r2, #392]	; 0x188
    1a06:	2004      	movs	r0, #4
    1a08:	f7ff fc3e 	bl	1288 <NVIC_EnableIRQ>
    1a0c:	e033      	b.n	1a76 <GPIOSetPinInterrupt+0x14e>
    1a0e:	68bb      	ldr	r3, [r7, #8]
    1a10:	2b00      	cmp	r3, #0
    1a12:	d005      	beq.n	1a20 <GPIOSetPinInterrupt+0xf8>
    1a14:	4a40      	ldr	r2, [pc, #256]	; (1b18 <GPIOSetPinInterrupt+0x1f0>)
    1a16:	687b      	ldr	r3, [r7, #4]
    1a18:	3318      	adds	r3, #24
    1a1a:	f8c2 318c 	str.w	r3, [r2, #396]	; 0x18c
    1a1e:	e003      	b.n	1a28 <GPIOSetPinInterrupt+0x100>
    1a20:	4a3d      	ldr	r2, [pc, #244]	; (1b18 <GPIOSetPinInterrupt+0x1f0>)
    1a22:	687b      	ldr	r3, [r7, #4]
    1a24:	f8c2 318c 	str.w	r3, [r2, #396]	; 0x18c
    1a28:	2005      	movs	r0, #5
    1a2a:	f7ff fc2d 	bl	1288 <NVIC_EnableIRQ>
    1a2e:	e022      	b.n	1a76 <GPIOSetPinInterrupt+0x14e>
    1a30:	68bb      	ldr	r3, [r7, #8]
    1a32:	2b00      	cmp	r3, #0
    1a34:	d005      	beq.n	1a42 <GPIOSetPinInterrupt+0x11a>
    1a36:	4a38      	ldr	r2, [pc, #224]	; (1b18 <GPIOSetPinInterrupt+0x1f0>)
    1a38:	687b      	ldr	r3, [r7, #4]
    1a3a:	3318      	adds	r3, #24
    1a3c:	f8c2 3190 	str.w	r3, [r2, #400]	; 0x190
    1a40:	e003      	b.n	1a4a <GPIOSetPinInterrupt+0x122>
    1a42:	4a35      	ldr	r2, [pc, #212]	; (1b18 <GPIOSetPinInterrupt+0x1f0>)
    1a44:	687b      	ldr	r3, [r7, #4]
    1a46:	f8c2 3190 	str.w	r3, [r2, #400]	; 0x190
    1a4a:	2006      	movs	r0, #6
    1a4c:	f7ff fc1c 	bl	1288 <NVIC_EnableIRQ>
    1a50:	e011      	b.n	1a76 <GPIOSetPinInterrupt+0x14e>
    1a52:	68bb      	ldr	r3, [r7, #8]
    1a54:	2b00      	cmp	r3, #0
    1a56:	d005      	beq.n	1a64 <GPIOSetPinInterrupt+0x13c>
    1a58:	4a2f      	ldr	r2, [pc, #188]	; (1b18 <GPIOSetPinInterrupt+0x1f0>)
    1a5a:	687b      	ldr	r3, [r7, #4]
    1a5c:	3318      	adds	r3, #24
    1a5e:	f8c2 3194 	str.w	r3, [r2, #404]	; 0x194
    1a62:	e003      	b.n	1a6c <GPIOSetPinInterrupt+0x144>
    1a64:	4a2c      	ldr	r2, [pc, #176]	; (1b18 <GPIOSetPinInterrupt+0x1f0>)
    1a66:	687b      	ldr	r3, [r7, #4]
    1a68:	f8c2 3194 	str.w	r3, [r2, #404]	; 0x194
    1a6c:	2007      	movs	r0, #7
    1a6e:	f7ff fc0b 	bl	1288 <NVIC_EnableIRQ>
    1a72:	e000      	b.n	1a76 <GPIOSetPinInterrupt+0x14e>
    1a74:	bf00      	nop
    1a76:	683b      	ldr	r3, [r7, #0]
    1a78:	2b00      	cmp	r3, #0
    1a7a:	d120      	bne.n	1abe <GPIOSetPinInterrupt+0x196>
    1a7c:	4927      	ldr	r1, [pc, #156]	; (1b1c <GPIOSetPinInterrupt+0x1f4>)
    1a7e:	4b27      	ldr	r3, [pc, #156]	; (1b1c <GPIOSetPinInterrupt+0x1f4>)
    1a80:	681b      	ldr	r3, [r3, #0]
    1a82:	68fa      	ldr	r2, [r7, #12]
    1a84:	2001      	movs	r0, #1
    1a86:	fa00 f202 	lsl.w	r2, r0, r2
    1a8a:	43d2      	mvns	r2, r2
    1a8c:	4013      	ands	r3, r2
    1a8e:	600b      	str	r3, [r1, #0]
    1a90:	69bb      	ldr	r3, [r7, #24]
    1a92:	2b00      	cmp	r3, #0
    1a94:	d109      	bne.n	1aaa <GPIOSetPinInterrupt+0x182>
    1a96:	4921      	ldr	r1, [pc, #132]	; (1b1c <GPIOSetPinInterrupt+0x1f4>)
    1a98:	4b20      	ldr	r3, [pc, #128]	; (1b1c <GPIOSetPinInterrupt+0x1f4>)
    1a9a:	691b      	ldr	r3, [r3, #16]
    1a9c:	68fa      	ldr	r2, [r7, #12]
    1a9e:	2001      	movs	r0, #1
    1aa0:	fa00 f202 	lsl.w	r2, r0, r2
    1aa4:	4313      	orrs	r3, r2
    1aa6:	610b      	str	r3, [r1, #16]
    1aa8:	e032      	b.n	1b10 <GPIOSetPinInterrupt+0x1e8>
    1aaa:	491c      	ldr	r1, [pc, #112]	; (1b1c <GPIOSetPinInterrupt+0x1f4>)
    1aac:	4b1b      	ldr	r3, [pc, #108]	; (1b1c <GPIOSetPinInterrupt+0x1f4>)
    1aae:	685b      	ldr	r3, [r3, #4]
    1ab0:	68fa      	ldr	r2, [r7, #12]
    1ab2:	2001      	movs	r0, #1
    1ab4:	fa00 f202 	lsl.w	r2, r0, r2
    1ab8:	4313      	orrs	r3, r2
    1aba:	604b      	str	r3, [r1, #4]
    1abc:	e029      	b.n	1b12 <GPIOSetPinInterrupt+0x1ea>
    1abe:	4917      	ldr	r1, [pc, #92]	; (1b1c <GPIOSetPinInterrupt+0x1f4>)
    1ac0:	4b16      	ldr	r3, [pc, #88]	; (1b1c <GPIOSetPinInterrupt+0x1f4>)
    1ac2:	681b      	ldr	r3, [r3, #0]
    1ac4:	68fa      	ldr	r2, [r7, #12]
    1ac6:	2001      	movs	r0, #1
    1ac8:	fa00 f202 	lsl.w	r2, r0, r2
    1acc:	4313      	orrs	r3, r2
    1ace:	600b      	str	r3, [r1, #0]
    1ad0:	4912      	ldr	r1, [pc, #72]	; (1b1c <GPIOSetPinInterrupt+0x1f4>)
    1ad2:	4b12      	ldr	r3, [pc, #72]	; (1b1c <GPIOSetPinInterrupt+0x1f4>)
    1ad4:	685b      	ldr	r3, [r3, #4]
    1ad6:	68fa      	ldr	r2, [r7, #12]
    1ad8:	2001      	movs	r0, #1
    1ada:	fa00 f202 	lsl.w	r2, r0, r2
    1ade:	4313      	orrs	r3, r2
    1ae0:	604b      	str	r3, [r1, #4]
    1ae2:	69bb      	ldr	r3, [r7, #24]
    1ae4:	2b00      	cmp	r3, #0
    1ae6:	d10a      	bne.n	1afe <GPIOSetPinInterrupt+0x1d6>
    1ae8:	490c      	ldr	r1, [pc, #48]	; (1b1c <GPIOSetPinInterrupt+0x1f4>)
    1aea:	4b0c      	ldr	r3, [pc, #48]	; (1b1c <GPIOSetPinInterrupt+0x1f4>)
    1aec:	691b      	ldr	r3, [r3, #16]
    1aee:	68fa      	ldr	r2, [r7, #12]
    1af0:	2001      	movs	r0, #1
    1af2:	fa00 f202 	lsl.w	r2, r0, r2
    1af6:	43d2      	mvns	r2, r2
    1af8:	4013      	ands	r3, r2
    1afa:	610b      	str	r3, [r1, #16]
    1afc:	e008      	b.n	1b10 <GPIOSetPinInterrupt+0x1e8>
    1afe:	4907      	ldr	r1, [pc, #28]	; (1b1c <GPIOSetPinInterrupt+0x1f4>)
    1b00:	4b06      	ldr	r3, [pc, #24]	; (1b1c <GPIOSetPinInterrupt+0x1f4>)
    1b02:	691b      	ldr	r3, [r3, #16]
    1b04:	68fa      	ldr	r2, [r7, #12]
    1b06:	2001      	movs	r0, #1
    1b08:	fa00 f202 	lsl.w	r2, r0, r2
    1b0c:	4313      	orrs	r3, r2
    1b0e:	610b      	str	r3, [r1, #16]
    1b10:	bf00      	nop
    1b12:	3710      	adds	r7, #16
    1b14:	46bd      	mov	sp, r7
    1b16:	bd80      	pop	{r7, pc}
    1b18:	40048000 	.word	0x40048000
    1b1c:	4004c000 	.word	0x4004c000

00001b20 <GPIOPinIntEnable>:
    1b20:	b480      	push	{r7}
    1b22:	b083      	sub	sp, #12
    1b24:	af00      	add	r7, sp, #0
    1b26:	6078      	str	r0, [r7, #4]
    1b28:	6039      	str	r1, [r7, #0]
    1b2a:	4b17      	ldr	r3, [pc, #92]	; (1b88 <GPIOPinIntEnable+0x68>)
    1b2c:	681b      	ldr	r3, [r3, #0]
    1b2e:	687a      	ldr	r2, [r7, #4]
    1b30:	2101      	movs	r1, #1
    1b32:	fa01 f202 	lsl.w	r2, r1, r2
    1b36:	4013      	ands	r3, r2
    1b38:	2b00      	cmp	r3, #0
    1b3a:	d116      	bne.n	1b6a <GPIOPinIntEnable+0x4a>
    1b3c:	683b      	ldr	r3, [r7, #0]
    1b3e:	2b00      	cmp	r3, #0
    1b40:	d109      	bne.n	1b56 <GPIOPinIntEnable+0x36>
    1b42:	4911      	ldr	r1, [pc, #68]	; (1b88 <GPIOPinIntEnable+0x68>)
    1b44:	4b10      	ldr	r3, [pc, #64]	; (1b88 <GPIOPinIntEnable+0x68>)
    1b46:	695b      	ldr	r3, [r3, #20]
    1b48:	687a      	ldr	r2, [r7, #4]
    1b4a:	2001      	movs	r0, #1
    1b4c:	fa00 f202 	lsl.w	r2, r0, r2
    1b50:	4313      	orrs	r3, r2
    1b52:	614b      	str	r3, [r1, #20]
    1b54:	e012      	b.n	1b7c <GPIOPinIntEnable+0x5c>
    1b56:	490c      	ldr	r1, [pc, #48]	; (1b88 <GPIOPinIntEnable+0x68>)
    1b58:	4b0b      	ldr	r3, [pc, #44]	; (1b88 <GPIOPinIntEnable+0x68>)
    1b5a:	689b      	ldr	r3, [r3, #8]
    1b5c:	687a      	ldr	r2, [r7, #4]
    1b5e:	2001      	movs	r0, #1
    1b60:	fa00 f202 	lsl.w	r2, r0, r2
    1b64:	4313      	orrs	r3, r2
    1b66:	608b      	str	r3, [r1, #8]
    1b68:	e009      	b.n	1b7e <GPIOPinIntEnable+0x5e>
    1b6a:	4907      	ldr	r1, [pc, #28]	; (1b88 <GPIOPinIntEnable+0x68>)
    1b6c:	4b06      	ldr	r3, [pc, #24]	; (1b88 <GPIOPinIntEnable+0x68>)
    1b6e:	689b      	ldr	r3, [r3, #8]
    1b70:	687a      	ldr	r2, [r7, #4]
    1b72:	2001      	movs	r0, #1
    1b74:	fa00 f202 	lsl.w	r2, r0, r2
    1b78:	4313      	orrs	r3, r2
    1b7a:	608b      	str	r3, [r1, #8]
    1b7c:	bf00      	nop
    1b7e:	370c      	adds	r7, #12
    1b80:	46bd      	mov	sp, r7
    1b82:	f85d 7b04 	ldr.w	r7, [sp], #4
    1b86:	4770      	bx	lr
    1b88:	4004c000 	.word	0x4004c000

00001b8c <GPIOPinIntDisable>:
    1b8c:	b480      	push	{r7}
    1b8e:	b083      	sub	sp, #12
    1b90:	af00      	add	r7, sp, #0
    1b92:	6078      	str	r0, [r7, #4]
    1b94:	6039      	str	r1, [r7, #0]
    1b96:	4b17      	ldr	r3, [pc, #92]	; (1bf4 <GPIOPinIntDisable+0x68>)
    1b98:	681b      	ldr	r3, [r3, #0]
    1b9a:	687a      	ldr	r2, [r7, #4]
    1b9c:	2101      	movs	r1, #1
    1b9e:	fa01 f202 	lsl.w	r2, r1, r2
    1ba2:	4013      	ands	r3, r2
    1ba4:	2b00      	cmp	r3, #0
    1ba6:	d116      	bne.n	1bd6 <GPIOPinIntDisable+0x4a>
    1ba8:	683b      	ldr	r3, [r7, #0]
    1baa:	2b00      	cmp	r3, #0
    1bac:	d109      	bne.n	1bc2 <GPIOPinIntDisable+0x36>
    1bae:	4911      	ldr	r1, [pc, #68]	; (1bf4 <GPIOPinIntDisable+0x68>)
    1bb0:	4b10      	ldr	r3, [pc, #64]	; (1bf4 <GPIOPinIntDisable+0x68>)
    1bb2:	699b      	ldr	r3, [r3, #24]
    1bb4:	687a      	ldr	r2, [r7, #4]
    1bb6:	2001      	movs	r0, #1
    1bb8:	fa00 f202 	lsl.w	r2, r0, r2
    1bbc:	4313      	orrs	r3, r2
    1bbe:	618b      	str	r3, [r1, #24]
    1bc0:	e012      	b.n	1be8 <GPIOPinIntDisable+0x5c>
    1bc2:	490c      	ldr	r1, [pc, #48]	; (1bf4 <GPIOPinIntDisable+0x68>)
    1bc4:	4b0b      	ldr	r3, [pc, #44]	; (1bf4 <GPIOPinIntDisable+0x68>)
    1bc6:	68db      	ldr	r3, [r3, #12]
    1bc8:	687a      	ldr	r2, [r7, #4]
    1bca:	2001      	movs	r0, #1
    1bcc:	fa00 f202 	lsl.w	r2, r0, r2
    1bd0:	4313      	orrs	r3, r2
    1bd2:	60cb      	str	r3, [r1, #12]
    1bd4:	e009      	b.n	1bea <GPIOPinIntDisable+0x5e>
    1bd6:	4907      	ldr	r1, [pc, #28]	; (1bf4 <GPIOPinIntDisable+0x68>)
    1bd8:	4b06      	ldr	r3, [pc, #24]	; (1bf4 <GPIOPinIntDisable+0x68>)
    1bda:	68db      	ldr	r3, [r3, #12]
    1bdc:	687a      	ldr	r2, [r7, #4]
    1bde:	2001      	movs	r0, #1
    1be0:	fa00 f202 	lsl.w	r2, r0, r2
    1be4:	4313      	orrs	r3, r2
    1be6:	60cb      	str	r3, [r1, #12]
    1be8:	bf00      	nop
    1bea:	370c      	adds	r7, #12
    1bec:	46bd      	mov	sp, r7
    1bee:	f85d 7b04 	ldr.w	r7, [sp], #4
    1bf2:	4770      	bx	lr
    1bf4:	4004c000 	.word	0x4004c000

00001bf8 <GPIOPinIntStatus>:
    1bf8:	b480      	push	{r7}
    1bfa:	b083      	sub	sp, #12
    1bfc:	af00      	add	r7, sp, #0
    1bfe:	6078      	str	r0, [r7, #4]
    1c00:	4b08      	ldr	r3, [pc, #32]	; (1c24 <GPIOPinIntStatus+0x2c>)
    1c02:	6a5b      	ldr	r3, [r3, #36]	; 0x24
    1c04:	687a      	ldr	r2, [r7, #4]
    1c06:	2101      	movs	r1, #1
    1c08:	fa01 f202 	lsl.w	r2, r1, r2
    1c0c:	4013      	ands	r3, r2
    1c0e:	2b00      	cmp	r3, #0
    1c10:	d001      	beq.n	1c16 <GPIOPinIntStatus+0x1e>
    1c12:	2301      	movs	r3, #1
    1c14:	e000      	b.n	1c18 <GPIOPinIntStatus+0x20>
    1c16:	2300      	movs	r3, #0
    1c18:	4618      	mov	r0, r3
    1c1a:	370c      	adds	r7, #12
    1c1c:	46bd      	mov	sp, r7
    1c1e:	f85d 7b04 	ldr.w	r7, [sp], #4
    1c22:	4770      	bx	lr
    1c24:	4004c000 	.word	0x4004c000

00001c28 <GPIOPinIntClear>:
    1c28:	b480      	push	{r7}
    1c2a:	b083      	sub	sp, #12
    1c2c:	af00      	add	r7, sp, #0
    1c2e:	6078      	str	r0, [r7, #4]
    1c30:	4b0a      	ldr	r3, [pc, #40]	; (1c5c <GPIOPinIntClear+0x34>)
    1c32:	681b      	ldr	r3, [r3, #0]
    1c34:	687a      	ldr	r2, [r7, #4]
    1c36:	2101      	movs	r1, #1
    1c38:	fa01 f202 	lsl.w	r2, r1, r2
    1c3c:	4013      	ands	r3, r2
    1c3e:	2b00      	cmp	r3, #0
    1c40:	d105      	bne.n	1c4e <GPIOPinIntClear+0x26>
    1c42:	4a06      	ldr	r2, [pc, #24]	; (1c5c <GPIOPinIntClear+0x34>)
    1c44:	687b      	ldr	r3, [r7, #4]
    1c46:	2101      	movs	r1, #1
    1c48:	fa01 f303 	lsl.w	r3, r1, r3
    1c4c:	6253      	str	r3, [r2, #36]	; 0x24
    1c4e:	bf00      	nop
    1c50:	370c      	adds	r7, #12
    1c52:	46bd      	mov	sp, r7
    1c54:	f85d 7b04 	ldr.w	r7, [sp], #4
    1c58:	4770      	bx	lr
    1c5a:	bf00      	nop
    1c5c:	4004c000 	.word	0x4004c000

00001c60 <GPIOSetGroupedInterrupt>:
    1c60:	b580      	push	{r7, lr}
    1c62:	b084      	sub	sp, #16
    1c64:	af00      	add	r7, sp, #0
    1c66:	60f8      	str	r0, [r7, #12]
    1c68:	60b9      	str	r1, [r7, #8]
    1c6a:	607a      	str	r2, [r7, #4]
    1c6c:	603b      	str	r3, [r7, #0]
    1c6e:	68fb      	ldr	r3, [r7, #12]
    1c70:	2b00      	cmp	r3, #0
    1c72:	d002      	beq.n	1c7a <GPIOSetGroupedInterrupt+0x1a>
    1c74:	2b01      	cmp	r3, #1
    1c76:	d03d      	beq.n	1cf4 <GPIOSetGroupedInterrupt+0x94>
    1c78:	e079      	b.n	1d6e <GPIOSetGroupedInterrupt+0x10e>
    1c7a:	683b      	ldr	r3, [r7, #0]
    1c7c:	2b00      	cmp	r3, #0
    1c7e:	d106      	bne.n	1c8e <GPIOSetGroupedInterrupt+0x2e>
    1c80:	4a3d      	ldr	r2, [pc, #244]	; (1d78 <GPIOSetGroupedInterrupt+0x118>)
    1c82:	4b3d      	ldr	r3, [pc, #244]	; (1d78 <GPIOSetGroupedInterrupt+0x118>)
    1c84:	681b      	ldr	r3, [r3, #0]
    1c86:	f023 0304 	bic.w	r3, r3, #4
    1c8a:	6013      	str	r3, [r2, #0]
    1c8c:	e005      	b.n	1c9a <GPIOSetGroupedInterrupt+0x3a>
    1c8e:	4a3a      	ldr	r2, [pc, #232]	; (1d78 <GPIOSetGroupedInterrupt+0x118>)
    1c90:	4b39      	ldr	r3, [pc, #228]	; (1d78 <GPIOSetGroupedInterrupt+0x118>)
    1c92:	681b      	ldr	r3, [r3, #0]
    1c94:	f043 0304 	orr.w	r3, r3, #4
    1c98:	6013      	str	r3, [r2, #0]
    1c9a:	687b      	ldr	r3, [r7, #4]
    1c9c:	2b00      	cmp	r3, #0
    1c9e:	d106      	bne.n	1cae <GPIOSetGroupedInterrupt+0x4e>
    1ca0:	4a35      	ldr	r2, [pc, #212]	; (1d78 <GPIOSetGroupedInterrupt+0x118>)
    1ca2:	4b35      	ldr	r3, [pc, #212]	; (1d78 <GPIOSetGroupedInterrupt+0x118>)
    1ca4:	681b      	ldr	r3, [r3, #0]
    1ca6:	f023 0302 	bic.w	r3, r3, #2
    1caa:	6013      	str	r3, [r2, #0]
    1cac:	e005      	b.n	1cba <GPIOSetGroupedInterrupt+0x5a>
    1cae:	4a32      	ldr	r2, [pc, #200]	; (1d78 <GPIOSetGroupedInterrupt+0x118>)
    1cb0:	4b31      	ldr	r3, [pc, #196]	; (1d78 <GPIOSetGroupedInterrupt+0x118>)
    1cb2:	681b      	ldr	r3, [r3, #0]
    1cb4:	f043 0302 	orr.w	r3, r3, #2
    1cb8:	6013      	str	r3, [r2, #0]
    1cba:	4a2f      	ldr	r2, [pc, #188]	; (1d78 <GPIOSetGroupedInterrupt+0x118>)
    1cbc:	69bb      	ldr	r3, [r7, #24]
    1cbe:	681b      	ldr	r3, [r3, #0]
    1cc0:	6213      	str	r3, [r2, #32]
    1cc2:	4a2d      	ldr	r2, [pc, #180]	; (1d78 <GPIOSetGroupedInterrupt+0x118>)
    1cc4:	69bb      	ldr	r3, [r7, #24]
    1cc6:	685b      	ldr	r3, [r3, #4]
    1cc8:	6253      	str	r3, [r2, #36]	; 0x24
    1cca:	4a2b      	ldr	r2, [pc, #172]	; (1d78 <GPIOSetGroupedInterrupt+0x118>)
    1ccc:	68bb      	ldr	r3, [r7, #8]
    1cce:	681b      	ldr	r3, [r3, #0]
    1cd0:	6413      	str	r3, [r2, #64]	; 0x40
    1cd2:	4a29      	ldr	r2, [pc, #164]	; (1d78 <GPIOSetGroupedInterrupt+0x118>)
    1cd4:	68bb      	ldr	r3, [r7, #8]
    1cd6:	685b      	ldr	r3, [r3, #4]
    1cd8:	6453      	str	r3, [r2, #68]	; 0x44
    1cda:	4a27      	ldr	r2, [pc, #156]	; (1d78 <GPIOSetGroupedInterrupt+0x118>)
    1cdc:	4b26      	ldr	r3, [pc, #152]	; (1d78 <GPIOSetGroupedInterrupt+0x118>)
    1cde:	681b      	ldr	r3, [r3, #0]
    1ce0:	f043 0301 	orr.w	r3, r3, #1
    1ce4:	6013      	str	r3, [r2, #0]
    1ce6:	2008      	movs	r0, #8
    1ce8:	f7ff fae6 	bl	12b8 <NVIC_ClearPendingIRQ>
    1cec:	2008      	movs	r0, #8
    1cee:	f7ff facb 	bl	1288 <NVIC_EnableIRQ>
    1cf2:	e03c      	b.n	1d6e <GPIOSetGroupedInterrupt+0x10e>
    1cf4:	683b      	ldr	r3, [r7, #0]
    1cf6:	2b00      	cmp	r3, #0
    1cf8:	d106      	bne.n	1d08 <GPIOSetGroupedInterrupt+0xa8>
    1cfa:	4a20      	ldr	r2, [pc, #128]	; (1d7c <GPIOSetGroupedInterrupt+0x11c>)
    1cfc:	4b1f      	ldr	r3, [pc, #124]	; (1d7c <GPIOSetGroupedInterrupt+0x11c>)
    1cfe:	681b      	ldr	r3, [r3, #0]
    1d00:	f023 0304 	bic.w	r3, r3, #4
    1d04:	6013      	str	r3, [r2, #0]
    1d06:	e005      	b.n	1d14 <GPIOSetGroupedInterrupt+0xb4>
    1d08:	4a1c      	ldr	r2, [pc, #112]	; (1d7c <GPIOSetGroupedInterrupt+0x11c>)
    1d0a:	4b1c      	ldr	r3, [pc, #112]	; (1d7c <GPIOSetGroupedInterrupt+0x11c>)
    1d0c:	681b      	ldr	r3, [r3, #0]
    1d0e:	f043 0304 	orr.w	r3, r3, #4
    1d12:	6013      	str	r3, [r2, #0]
    1d14:	687b      	ldr	r3, [r7, #4]
    1d16:	2b00      	cmp	r3, #0
    1d18:	d106      	bne.n	1d28 <GPIOSetGroupedInterrupt+0xc8>
    1d1a:	4a18      	ldr	r2, [pc, #96]	; (1d7c <GPIOSetGroupedInterrupt+0x11c>)
    1d1c:	4b17      	ldr	r3, [pc, #92]	; (1d7c <GPIOSetGroupedInterrupt+0x11c>)
    1d1e:	681b      	ldr	r3, [r3, #0]
    1d20:	f023 0302 	bic.w	r3, r3, #2
    1d24:	6013      	str	r3, [r2, #0]
    1d26:	e005      	b.n	1d34 <GPIOSetGroupedInterrupt+0xd4>
    1d28:	4a14      	ldr	r2, [pc, #80]	; (1d7c <GPIOSetGroupedInterrupt+0x11c>)
    1d2a:	4b14      	ldr	r3, [pc, #80]	; (1d7c <GPIOSetGroupedInterrupt+0x11c>)
    1d2c:	681b      	ldr	r3, [r3, #0]
    1d2e:	f043 0302 	orr.w	r3, r3, #2
    1d32:	6013      	str	r3, [r2, #0]
    1d34:	4a11      	ldr	r2, [pc, #68]	; (1d7c <GPIOSetGroupedInterrupt+0x11c>)
    1d36:	69bb      	ldr	r3, [r7, #24]
    1d38:	681b      	ldr	r3, [r3, #0]
    1d3a:	6213      	str	r3, [r2, #32]
    1d3c:	4a0f      	ldr	r2, [pc, #60]	; (1d7c <GPIOSetGroupedInterrupt+0x11c>)
    1d3e:	69bb      	ldr	r3, [r7, #24]
    1d40:	685b      	ldr	r3, [r3, #4]
    1d42:	6253      	str	r3, [r2, #36]	; 0x24
    1d44:	4a0d      	ldr	r2, [pc, #52]	; (1d7c <GPIOSetGroupedInterrupt+0x11c>)
    1d46:	68bb      	ldr	r3, [r7, #8]
    1d48:	681b      	ldr	r3, [r3, #0]
    1d4a:	6413      	str	r3, [r2, #64]	; 0x40
    1d4c:	4a0b      	ldr	r2, [pc, #44]	; (1d7c <GPIOSetGroupedInterrupt+0x11c>)
    1d4e:	68bb      	ldr	r3, [r7, #8]
    1d50:	685b      	ldr	r3, [r3, #4]
    1d52:	6453      	str	r3, [r2, #68]	; 0x44
    1d54:	4a09      	ldr	r2, [pc, #36]	; (1d7c <GPIOSetGroupedInterrupt+0x11c>)
    1d56:	4b09      	ldr	r3, [pc, #36]	; (1d7c <GPIOSetGroupedInterrupt+0x11c>)
    1d58:	681b      	ldr	r3, [r3, #0]
    1d5a:	f043 0301 	orr.w	r3, r3, #1
    1d5e:	6013      	str	r3, [r2, #0]
    1d60:	2009      	movs	r0, #9
    1d62:	f7ff faa9 	bl	12b8 <NVIC_ClearPendingIRQ>
    1d66:	2009      	movs	r0, #9
    1d68:	f7ff fa8e 	bl	1288 <NVIC_EnableIRQ>
    1d6c:	bf00      	nop
    1d6e:	bf00      	nop
    1d70:	3710      	adds	r7, #16
    1d72:	46bd      	mov	sp, r7
    1d74:	bd80      	pop	{r7, pc}
    1d76:	bf00      	nop
    1d78:	4005c000 	.word	0x4005c000
    1d7c:	40060000 	.word	0x40060000

00001d80 <GPIOGetPinValue>:
    1d80:	b480      	push	{r7}
    1d82:	b085      	sub	sp, #20
    1d84:	af00      	add	r7, sp, #0
    1d86:	6078      	str	r0, [r7, #4]
    1d88:	6039      	str	r1, [r7, #0]
    1d8a:	2300      	movs	r3, #0
    1d8c:	60fb      	str	r3, [r7, #12]
    1d8e:	683b      	ldr	r3, [r7, #0]
    1d90:	2b1f      	cmp	r3, #31
    1d92:	d810      	bhi.n	1db6 <GPIOGetPinValue+0x36>
    1d94:	f04f 42a0 	mov.w	r2, #1342177280	; 0x50000000
    1d98:	687b      	ldr	r3, [r7, #4]
    1d9a:	f503 6304 	add.w	r3, r3, #2112	; 0x840
    1d9e:	f852 3023 	ldr.w	r3, [r2, r3, lsl #2]
    1da2:	683a      	ldr	r2, [r7, #0]
    1da4:	2101      	movs	r1, #1
    1da6:	fa01 f202 	lsl.w	r2, r1, r2
    1daa:	4013      	ands	r3, r2
    1dac:	2b00      	cmp	r3, #0
    1dae:	d00d      	beq.n	1dcc <GPIOGetPinValue+0x4c>
    1db0:	2301      	movs	r3, #1
    1db2:	60fb      	str	r3, [r7, #12]
    1db4:	e00a      	b.n	1dcc <GPIOGetPinValue+0x4c>
    1db6:	683b      	ldr	r3, [r7, #0]
    1db8:	2bff      	cmp	r3, #255	; 0xff
    1dba:	d107      	bne.n	1dcc <GPIOGetPinValue+0x4c>
    1dbc:	f04f 42a0 	mov.w	r2, #1342177280	; 0x50000000
    1dc0:	687b      	ldr	r3, [r7, #4]
    1dc2:	f503 6304 	add.w	r3, r3, #2112	; 0x840
    1dc6:	f852 3023 	ldr.w	r3, [r2, r3, lsl #2]
    1dca:	60fb      	str	r3, [r7, #12]
    1dcc:	68fb      	ldr	r3, [r7, #12]
    1dce:	4618      	mov	r0, r3
    1dd0:	3714      	adds	r7, #20
    1dd2:	46bd      	mov	sp, r7
    1dd4:	f85d 7b04 	ldr.w	r7, [sp], #4
    1dd8:	4770      	bx	lr
    1dda:	bf00      	nop

00001ddc <GPIOSetBitValue>:
    1ddc:	b480      	push	{r7}
    1dde:	b085      	sub	sp, #20
    1de0:	af00      	add	r7, sp, #0
    1de2:	60f8      	str	r0, [r7, #12]
    1de4:	60b9      	str	r1, [r7, #8]
    1de6:	607a      	str	r2, [r7, #4]
    1de8:	687b      	ldr	r3, [r7, #4]
    1dea:	2b00      	cmp	r3, #0
    1dec:	d00c      	beq.n	1e08 <GPIOSetBitValue+0x2c>
    1dee:	f04f 42a0 	mov.w	r2, #1342177280	; 0x50000000
    1df2:	68bb      	ldr	r3, [r7, #8]
    1df4:	2101      	movs	r1, #1
    1df6:	fa01 f303 	lsl.w	r3, r1, r3
    1dfa:	4619      	mov	r1, r3
    1dfc:	68fb      	ldr	r3, [r7, #12]
    1dfe:	f503 6308 	add.w	r3, r3, #2176	; 0x880
    1e02:	f842 1023 	str.w	r1, [r2, r3, lsl #2]
    1e06:	e00b      	b.n	1e20 <GPIOSetBitValue+0x44>
    1e08:	f04f 42a0 	mov.w	r2, #1342177280	; 0x50000000
    1e0c:	68bb      	ldr	r3, [r7, #8]
    1e0e:	2101      	movs	r1, #1
    1e10:	fa01 f303 	lsl.w	r3, r1, r3
    1e14:	4619      	mov	r1, r3
    1e16:	68fb      	ldr	r3, [r7, #12]
    1e18:	f503 630a 	add.w	r3, r3, #2208	; 0x8a0
    1e1c:	f842 1023 	str.w	r1, [r2, r3, lsl #2]
    1e20:	bf00      	nop
    1e22:	3714      	adds	r7, #20
    1e24:	46bd      	mov	sp, r7
    1e26:	f85d 7b04 	ldr.w	r7, [sp], #4
    1e2a:	4770      	bx	lr

00001e2c <GPIOSetDir>:
    1e2c:	b480      	push	{r7}
    1e2e:	b085      	sub	sp, #20
    1e30:	af00      	add	r7, sp, #0
    1e32:	60f8      	str	r0, [r7, #12]
    1e34:	60b9      	str	r1, [r7, #8]
    1e36:	607a      	str	r2, [r7, #4]
    1e38:	687b      	ldr	r3, [r7, #4]
    1e3a:	2b00      	cmp	r3, #0
    1e3c:	d013      	beq.n	1e66 <GPIOSetDir+0x3a>
    1e3e:	f04f 41a0 	mov.w	r1, #1342177280	; 0x50000000
    1e42:	f04f 42a0 	mov.w	r2, #1342177280	; 0x50000000
    1e46:	68fb      	ldr	r3, [r7, #12]
    1e48:	f503 6300 	add.w	r3, r3, #2048	; 0x800
    1e4c:	f852 3023 	ldr.w	r3, [r2, r3, lsl #2]
    1e50:	68ba      	ldr	r2, [r7, #8]
    1e52:	2001      	movs	r0, #1
    1e54:	fa00 f202 	lsl.w	r2, r0, r2
    1e58:	431a      	orrs	r2, r3
    1e5a:	68fb      	ldr	r3, [r7, #12]
    1e5c:	f503 6300 	add.w	r3, r3, #2048	; 0x800
    1e60:	f841 2023 	str.w	r2, [r1, r3, lsl #2]
    1e64:	e013      	b.n	1e8e <GPIOSetDir+0x62>
    1e66:	f04f 41a0 	mov.w	r1, #1342177280	; 0x50000000
    1e6a:	f04f 42a0 	mov.w	r2, #1342177280	; 0x50000000
    1e6e:	68fb      	ldr	r3, [r7, #12]
    1e70:	f503 6300 	add.w	r3, r3, #2048	; 0x800
    1e74:	f852 3023 	ldr.w	r3, [r2, r3, lsl #2]
    1e78:	68ba      	ldr	r2, [r7, #8]
    1e7a:	2001      	movs	r0, #1
    1e7c:	fa00 f202 	lsl.w	r2, r0, r2
    1e80:	43d2      	mvns	r2, r2
    1e82:	401a      	ands	r2, r3
    1e84:	68fb      	ldr	r3, [r7, #12]
    1e86:	f503 6300 	add.w	r3, r3, #2048	; 0x800
    1e8a:	f841 2023 	str.w	r2, [r1, r3, lsl #2]
    1e8e:	bf00      	nop
    1e90:	3714      	adds	r7, #20
    1e92:	46bd      	mov	sp, r7
    1e94:	f85d 7b04 	ldr.w	r7, [sp], #4
    1e98:	4770      	bx	lr
    1e9a:	bf00      	nop

00001e9c <timer_set>:
    1e9c:	b580      	push	{r7, lr}
    1e9e:	b082      	sub	sp, #8
    1ea0:	af00      	add	r7, sp, #0
    1ea2:	6078      	str	r0, [r7, #4]
    1ea4:	6039      	str	r1, [r7, #0]
    1ea6:	687b      	ldr	r3, [r7, #4]
    1ea8:	683a      	ldr	r2, [r7, #0]
    1eaa:	605a      	str	r2, [r3, #4]
    1eac:	f7fe ffd8 	bl	e60 <clock_time>
    1eb0:	4602      	mov	r2, r0
    1eb2:	687b      	ldr	r3, [r7, #4]
    1eb4:	601a      	str	r2, [r3, #0]
    1eb6:	3708      	adds	r7, #8
    1eb8:	46bd      	mov	sp, r7
    1eba:	bd80      	pop	{r7, pc}

00001ebc <timer_reset>:
    1ebc:	b480      	push	{r7}
    1ebe:	b083      	sub	sp, #12
    1ec0:	af00      	add	r7, sp, #0
    1ec2:	6078      	str	r0, [r7, #4]
    1ec4:	687b      	ldr	r3, [r7, #4]
    1ec6:	681a      	ldr	r2, [r3, #0]
    1ec8:	687b      	ldr	r3, [r7, #4]
    1eca:	685b      	ldr	r3, [r3, #4]
    1ecc:	441a      	add	r2, r3
    1ece:	687b      	ldr	r3, [r7, #4]
    1ed0:	601a      	str	r2, [r3, #0]
    1ed2:	370c      	adds	r7, #12
    1ed4:	46bd      	mov	sp, r7
    1ed6:	f85d 7b04 	ldr.w	r7, [sp], #4
    1eda:	4770      	bx	lr

00001edc <timer_restart>:
    1edc:	b580      	push	{r7, lr}
    1ede:	b082      	sub	sp, #8
    1ee0:	af00      	add	r7, sp, #0
    1ee2:	6078      	str	r0, [r7, #4]
    1ee4:	f7fe ffbc 	bl	e60 <clock_time>
    1ee8:	4602      	mov	r2, r0
    1eea:	687b      	ldr	r3, [r7, #4]
    1eec:	601a      	str	r2, [r3, #0]
    1eee:	3708      	adds	r7, #8
    1ef0:	46bd      	mov	sp, r7
    1ef2:	bd80      	pop	{r7, pc}

00001ef4 <timer_expired>:
    1ef4:	b580      	push	{r7, lr}
    1ef6:	b084      	sub	sp, #16
    1ef8:	af00      	add	r7, sp, #0
    1efa:	6078      	str	r0, [r7, #4]
    1efc:	f7fe ffb0 	bl	e60 <clock_time>
    1f00:	4602      	mov	r2, r0
    1f02:	687b      	ldr	r3, [r7, #4]
    1f04:	681b      	ldr	r3, [r3, #0]
    1f06:	1ad3      	subs	r3, r2, r3
    1f08:	3301      	adds	r3, #1
    1f0a:	60fb      	str	r3, [r7, #12]
    1f0c:	687b      	ldr	r3, [r7, #4]
    1f0e:	685a      	ldr	r2, [r3, #4]
    1f10:	68fb      	ldr	r3, [r7, #12]
    1f12:	429a      	cmp	r2, r3
    1f14:	bf34      	ite	cc
    1f16:	2301      	movcc	r3, #1
    1f18:	2300      	movcs	r3, #0
    1f1a:	b2db      	uxtb	r3, r3
    1f1c:	4618      	mov	r0, r3
    1f1e:	3710      	adds	r7, #16
    1f20:	46bd      	mov	sp, r7
    1f22:	bd80      	pop	{r7, pc}

00001f24 <timer_remaining>:
    1f24:	b590      	push	{r4, r7, lr}
    1f26:	b083      	sub	sp, #12
    1f28:	af00      	add	r7, sp, #0
    1f2a:	6078      	str	r0, [r7, #4]
    1f2c:	687b      	ldr	r3, [r7, #4]
    1f2e:	681a      	ldr	r2, [r3, #0]
    1f30:	687b      	ldr	r3, [r7, #4]
    1f32:	685b      	ldr	r3, [r3, #4]
    1f34:	18d4      	adds	r4, r2, r3
    1f36:	f7fe ff93 	bl	e60 <clock_time>
    1f3a:	4603      	mov	r3, r0
    1f3c:	1ae3      	subs	r3, r4, r3
    1f3e:	4618      	mov	r0, r3
    1f40:	370c      	adds	r7, #12
    1f42:	46bd      	mov	sp, r7
    1f44:	bd90      	pop	{r4, r7, pc}
    1f46:	bf00      	nop

00001f48 <_puts_r>:
    1f48:	b5f0      	push	{r4, r5, r6, r7, lr}
    1f4a:	4604      	mov	r4, r0
    1f4c:	b089      	sub	sp, #36	; 0x24
    1f4e:	4608      	mov	r0, r1
    1f50:	460d      	mov	r5, r1
    1f52:	f000 f831 	bl	1fb8 <strlen>
    1f56:	68a3      	ldr	r3, [r4, #8]
    1f58:	2102      	movs	r1, #2
    1f5a:	899a      	ldrh	r2, [r3, #12]
    1f5c:	f8df e044 	ldr.w	lr, [pc, #68]	; 1fa4 <_puts_r+0x5c>
    1f60:	f100 0c01 	add.w	ip, r0, #1
    1f64:	2701      	movs	r7, #1
    1f66:	ae04      	add	r6, sp, #16
    1f68:	9102      	str	r1, [sp, #8]
    1f6a:	0491      	lsls	r1, r2, #18
    1f6c:	9504      	str	r5, [sp, #16]
    1f6e:	9005      	str	r0, [sp, #20]
    1f70:	f8cd c00c 	str.w	ip, [sp, #12]
    1f74:	f8cd e018 	str.w	lr, [sp, #24]
    1f78:	9707      	str	r7, [sp, #28]
    1f7a:	9601      	str	r6, [sp, #4]
    1f7c:	d406      	bmi.n	1f8c <_puts_r+0x44>
    1f7e:	6e59      	ldr	r1, [r3, #100]	; 0x64
    1f80:	f442 5200 	orr.w	r2, r2, #8192	; 0x2000
    1f84:	f421 5100 	bic.w	r1, r1, #8192	; 0x2000
    1f88:	819a      	strh	r2, [r3, #12]
    1f8a:	6659      	str	r1, [r3, #100]	; 0x64
    1f8c:	4620      	mov	r0, r4
    1f8e:	4619      	mov	r1, r3
    1f90:	aa01      	add	r2, sp, #4
    1f92:	f000 f83f 	bl	2014 <__sfvwrite_r>
    1f96:	2800      	cmp	r0, #0
    1f98:	bf14      	ite	ne
    1f9a:	f04f 30ff 	movne.w	r0, #4294967295
    1f9e:	200a      	moveq	r0, #10
    1fa0:	b009      	add	sp, #36	; 0x24
    1fa2:	bdf0      	pop	{r4, r5, r6, r7, pc}
    1fa4:	000040a0 	.word	0x000040a0

00001fa8 <puts>:
    1fa8:	4b02      	ldr	r3, [pc, #8]	; (1fb4 <puts+0xc>)
    1faa:	4601      	mov	r1, r0
    1fac:	6818      	ldr	r0, [r3, #0]
    1fae:	f7ff bfcb 	b.w	1f48 <_puts_r>
    1fb2:	bf00      	nop
    1fb4:	100008a0 	.word	0x100008a0

00001fb8 <strlen>:
    1fb8:	f020 0103 	bic.w	r1, r0, #3
    1fbc:	f010 0003 	ands.w	r0, r0, #3
    1fc0:	f1c0 0000 	rsb	r0, r0, #0
    1fc4:	f851 3b04 	ldr.w	r3, [r1], #4
    1fc8:	f100 0c04 	add.w	ip, r0, #4
    1fcc:	ea4f 0ccc 	mov.w	ip, ip, lsl #3
    1fd0:	f06f 0200 	mvn.w	r2, #0
    1fd4:	bf1c      	itt	ne
    1fd6:	fa22 f20c 	lsrne.w	r2, r2, ip
    1fda:	4313      	orrne	r3, r2
    1fdc:	f04f 0c01 	mov.w	ip, #1
    1fe0:	ea4c 2c0c 	orr.w	ip, ip, ip, lsl #8
    1fe4:	ea4c 4c0c 	orr.w	ip, ip, ip, lsl #16
    1fe8:	eba3 020c 	sub.w	r2, r3, ip
    1fec:	ea22 0203 	bic.w	r2, r2, r3
    1ff0:	ea12 12cc 	ands.w	r2, r2, ip, lsl #7
    1ff4:	bf04      	itt	eq
    1ff6:	f851 3b04 	ldreq.w	r3, [r1], #4
    1ffa:	3004      	addeq	r0, #4
    1ffc:	d0f4      	beq.n	1fe8 <strlen+0x30>
    1ffe:	f1c2 0100 	rsb	r1, r2, #0
    2002:	ea02 0201 	and.w	r2, r2, r1
    2006:	fab2 f282 	clz	r2, r2
    200a:	f1c2 021f 	rsb	r2, r2, #31
    200e:	eb00 00d2 	add.w	r0, r0, r2, lsr #3
    2012:	4770      	bx	lr

00002014 <__sfvwrite_r>:
    2014:	6893      	ldr	r3, [r2, #8]
    2016:	2b00      	cmp	r3, #0
    2018:	f000 80b1 	beq.w	217e <__sfvwrite_r+0x16a>
    201c:	e92d 4ff0 	stmdb	sp!, {r4, r5, r6, r7, r8, r9, sl, fp, lr}
    2020:	f8b1 e00c 	ldrh.w	lr, [r1, #12]
    2024:	b083      	sub	sp, #12
    2026:	f01e 0f08 	tst.w	lr, #8
    202a:	460c      	mov	r4, r1
    202c:	4681      	mov	r9, r0
    202e:	4616      	mov	r6, r2
    2030:	d028      	beq.n	2084 <__sfvwrite_r+0x70>
    2032:	690b      	ldr	r3, [r1, #16]
    2034:	b333      	cbz	r3, 2084 <__sfvwrite_r+0x70>
    2036:	f00e 0802 	and.w	r8, lr, #2
    203a:	fa1f f088 	uxth.w	r0, r8
    203e:	6835      	ldr	r5, [r6, #0]
    2040:	b380      	cbz	r0, 20a4 <__sfvwrite_r+0x90>
    2042:	f04f 0b00 	mov.w	fp, #0
    2046:	46d8      	mov	r8, fp
    2048:	f8df a2e4 	ldr.w	sl, [pc, #740]	; 2330 <__sfvwrite_r+0x31c>
    204c:	f1b8 0f00 	cmp.w	r8, #0
    2050:	f000 808f 	beq.w	2172 <__sfvwrite_r+0x15e>
    2054:	45d0      	cmp	r8, sl
    2056:	4643      	mov	r3, r8
    2058:	4648      	mov	r0, r9
    205a:	bf28      	it	cs
    205c:	4653      	movcs	r3, sl
    205e:	69e1      	ldr	r1, [r4, #28]
    2060:	465a      	mov	r2, fp
    2062:	6a67      	ldr	r7, [r4, #36]	; 0x24
    2064:	47b8      	blx	r7
    2066:	2800      	cmp	r0, #0
    2068:	f340 80a8 	ble.w	21bc <__sfvwrite_r+0x1a8>
    206c:	68b3      	ldr	r3, [r6, #8]
    206e:	4483      	add	fp, r0
    2070:	1a1b      	subs	r3, r3, r0
    2072:	ebc0 0808 	rsb	r8, r0, r8
    2076:	60b3      	str	r3, [r6, #8]
    2078:	2b00      	cmp	r3, #0
    207a:	d1e7      	bne.n	204c <__sfvwrite_r+0x38>
    207c:	2000      	movs	r0, #0
    207e:	b003      	add	sp, #12
    2080:	e8bd 8ff0 	ldmia.w	sp!, {r4, r5, r6, r7, r8, r9, sl, fp, pc}
    2084:	4648      	mov	r0, r9
    2086:	4621      	mov	r1, r4
    2088:	f000 ff04 	bl	2e94 <__swsetup_r>
    208c:	2800      	cmp	r0, #0
    208e:	f040 8146 	bne.w	231e <__sfvwrite_r+0x30a>
    2092:	f8b4 e00c 	ldrh.w	lr, [r4, #12]
    2096:	6835      	ldr	r5, [r6, #0]
    2098:	f00e 0802 	and.w	r8, lr, #2
    209c:	fa1f f088 	uxth.w	r0, r8
    20a0:	2800      	cmp	r0, #0
    20a2:	d1ce      	bne.n	2042 <__sfvwrite_r+0x2e>
    20a4:	f01e 0b01 	ands.w	fp, lr, #1
    20a8:	f040 8091 	bne.w	21ce <__sfvwrite_r+0x1ba>
    20ac:	46d8      	mov	r8, fp
    20ae:	f1b8 0f00 	cmp.w	r8, #0
    20b2:	d058      	beq.n	2166 <__sfvwrite_r+0x152>
    20b4:	f41e 7f00 	tst.w	lr, #512	; 0x200
    20b8:	68a7      	ldr	r7, [r4, #8]
    20ba:	d062      	beq.n	2182 <__sfvwrite_r+0x16e>
    20bc:	45b8      	cmp	r8, r7
    20be:	46ba      	mov	sl, r7
    20c0:	f0c0 80c2 	bcc.w	2248 <__sfvwrite_r+0x234>
    20c4:	f41e 6f90 	tst.w	lr, #1152	; 0x480
    20c8:	f000 80c0 	beq.w	224c <__sfvwrite_r+0x238>
    20cc:	6967      	ldr	r7, [r4, #20]
    20ce:	6921      	ldr	r1, [r4, #16]
    20d0:	6823      	ldr	r3, [r4, #0]
    20d2:	eb07 0747 	add.w	r7, r7, r7, lsl #1
    20d6:	1a5b      	subs	r3, r3, r1
    20d8:	eb07 77d7 	add.w	r7, r7, r7, lsr #31
    20dc:	1c58      	adds	r0, r3, #1
    20de:	107f      	asrs	r7, r7, #1
    20e0:	4440      	add	r0, r8
    20e2:	4287      	cmp	r7, r0
    20e4:	463a      	mov	r2, r7
    20e6:	bf3c      	itt	cc
    20e8:	4607      	movcc	r7, r0
    20ea:	463a      	movcc	r2, r7
    20ec:	f41e 6f80 	tst.w	lr, #1024	; 0x400
    20f0:	9300      	str	r3, [sp, #0]
    20f2:	f000 80fb 	beq.w	22ec <__sfvwrite_r+0x2d8>
    20f6:	4611      	mov	r1, r2
    20f8:	4648      	mov	r0, r9
    20fa:	f000 f91b 	bl	2334 <_malloc_r>
    20fe:	9b00      	ldr	r3, [sp, #0]
    2100:	4682      	mov	sl, r0
    2102:	2800      	cmp	r0, #0
    2104:	f000 810e 	beq.w	2324 <__sfvwrite_r+0x310>
    2108:	461a      	mov	r2, r3
    210a:	6921      	ldr	r1, [r4, #16]
    210c:	9300      	str	r3, [sp, #0]
    210e:	f000 fbe1 	bl	28d4 <memcpy>
    2112:	89a2      	ldrh	r2, [r4, #12]
    2114:	9b00      	ldr	r3, [sp, #0]
    2116:	f422 6290 	bic.w	r2, r2, #1152	; 0x480
    211a:	f042 0280 	orr.w	r2, r2, #128	; 0x80
    211e:	81a2      	strh	r2, [r4, #12]
    2120:	eb0a 0003 	add.w	r0, sl, r3
    2124:	f8c4 a010 	str.w	sl, [r4, #16]
    2128:	1afb      	subs	r3, r7, r3
    212a:	6167      	str	r7, [r4, #20]
    212c:	46c2      	mov	sl, r8
    212e:	4647      	mov	r7, r8
    2130:	6020      	str	r0, [r4, #0]
    2132:	60a3      	str	r3, [r4, #8]
    2134:	4652      	mov	r2, sl
    2136:	4659      	mov	r1, fp
    2138:	f000 fc42 	bl	29c0 <memmove>
    213c:	68a0      	ldr	r0, [r4, #8]
    213e:	6822      	ldr	r2, [r4, #0]
    2140:	1bc0      	subs	r0, r0, r7
    2142:	60a0      	str	r0, [r4, #8]
    2144:	4640      	mov	r0, r8
    2146:	eb02 030a 	add.w	r3, r2, sl
    214a:	6023      	str	r3, [r4, #0]
    214c:	68b3      	ldr	r3, [r6, #8]
    214e:	4483      	add	fp, r0
    2150:	1a1b      	subs	r3, r3, r0
    2152:	ebc0 0808 	rsb	r8, r0, r8
    2156:	60b3      	str	r3, [r6, #8]
    2158:	2b00      	cmp	r3, #0
    215a:	d08f      	beq.n	207c <__sfvwrite_r+0x68>
    215c:	f8b4 e00c 	ldrh.w	lr, [r4, #12]
    2160:	f1b8 0f00 	cmp.w	r8, #0
    2164:	d1a6      	bne.n	20b4 <__sfvwrite_r+0xa0>
    2166:	f8d5 b000 	ldr.w	fp, [r5]
    216a:	f8d5 8004 	ldr.w	r8, [r5, #4]
    216e:	3508      	adds	r5, #8
    2170:	e79d      	b.n	20ae <__sfvwrite_r+0x9a>
    2172:	f8d5 b000 	ldr.w	fp, [r5]
    2176:	f8d5 8004 	ldr.w	r8, [r5, #4]
    217a:	3508      	adds	r5, #8
    217c:	e766      	b.n	204c <__sfvwrite_r+0x38>
    217e:	2000      	movs	r0, #0
    2180:	4770      	bx	lr
    2182:	6820      	ldr	r0, [r4, #0]
    2184:	6923      	ldr	r3, [r4, #16]
    2186:	4298      	cmp	r0, r3
    2188:	d803      	bhi.n	2192 <__sfvwrite_r+0x17e>
    218a:	6962      	ldr	r2, [r4, #20]
    218c:	4590      	cmp	r8, r2
    218e:	f080 8085 	bcs.w	229c <__sfvwrite_r+0x288>
    2192:	4547      	cmp	r7, r8
    2194:	bf28      	it	cs
    2196:	4647      	movcs	r7, r8
    2198:	4659      	mov	r1, fp
    219a:	463a      	mov	r2, r7
    219c:	f000 fc10 	bl	29c0 <memmove>
    21a0:	68a3      	ldr	r3, [r4, #8]
    21a2:	6822      	ldr	r2, [r4, #0]
    21a4:	1bdb      	subs	r3, r3, r7
    21a6:	443a      	add	r2, r7
    21a8:	60a3      	str	r3, [r4, #8]
    21aa:	6022      	str	r2, [r4, #0]
    21ac:	2b00      	cmp	r3, #0
    21ae:	d149      	bne.n	2244 <__sfvwrite_r+0x230>
    21b0:	4648      	mov	r0, r9
    21b2:	4621      	mov	r1, r4
    21b4:	f000 ff74 	bl	30a0 <_fflush_r>
    21b8:	2800      	cmp	r0, #0
    21ba:	d043      	beq.n	2244 <__sfvwrite_r+0x230>
    21bc:	89a3      	ldrh	r3, [r4, #12]
    21be:	f043 0340 	orr.w	r3, r3, #64	; 0x40
    21c2:	f04f 30ff 	mov.w	r0, #4294967295
    21c6:	81a3      	strh	r3, [r4, #12]
    21c8:	b003      	add	sp, #12
    21ca:	e8bd 8ff0 	ldmia.w	sp!, {r4, r5, r6, r7, r8, r9, sl, fp, pc}
    21ce:	4680      	mov	r8, r0
    21d0:	4683      	mov	fp, r0
    21d2:	4682      	mov	sl, r0
    21d4:	9000      	str	r0, [sp, #0]
    21d6:	f1ba 0f00 	cmp.w	sl, #0
    21da:	d02b      	beq.n	2234 <__sfvwrite_r+0x220>
    21dc:	9b00      	ldr	r3, [sp, #0]
    21de:	2b00      	cmp	r3, #0
    21e0:	d04f      	beq.n	2282 <__sfvwrite_r+0x26e>
    21e2:	45d0      	cmp	r8, sl
    21e4:	4643      	mov	r3, r8
    21e6:	bf28      	it	cs
    21e8:	4653      	movcs	r3, sl
    21ea:	6820      	ldr	r0, [r4, #0]
    21ec:	6921      	ldr	r1, [r4, #16]
    21ee:	461f      	mov	r7, r3
    21f0:	4288      	cmp	r0, r1
    21f2:	f8d4 e008 	ldr.w	lr, [r4, #8]
    21f6:	6962      	ldr	r2, [r4, #20]
    21f8:	d903      	bls.n	2202 <__sfvwrite_r+0x1ee>
    21fa:	eb0e 0c02 	add.w	ip, lr, r2
    21fe:	4563      	cmp	r3, ip
    2200:	dc5e      	bgt.n	22c0 <__sfvwrite_r+0x2ac>
    2202:	4293      	cmp	r3, r2
    2204:	db24      	blt.n	2250 <__sfvwrite_r+0x23c>
    2206:	4613      	mov	r3, r2
    2208:	6a67      	ldr	r7, [r4, #36]	; 0x24
    220a:	4648      	mov	r0, r9
    220c:	69e1      	ldr	r1, [r4, #28]
    220e:	465a      	mov	r2, fp
    2210:	47b8      	blx	r7
    2212:	1e07      	subs	r7, r0, #0
    2214:	ddd2      	ble.n	21bc <__sfvwrite_r+0x1a8>
    2216:	ebb8 0807 	subs.w	r8, r8, r7
    221a:	d029      	beq.n	2270 <__sfvwrite_r+0x25c>
    221c:	68b3      	ldr	r3, [r6, #8]
    221e:	44bb      	add	fp, r7
    2220:	1bdb      	subs	r3, r3, r7
    2222:	ebc7 0a0a 	rsb	sl, r7, sl
    2226:	60b3      	str	r3, [r6, #8]
    2228:	2b00      	cmp	r3, #0
    222a:	f43f af27 	beq.w	207c <__sfvwrite_r+0x68>
    222e:	f1ba 0f00 	cmp.w	sl, #0
    2232:	d1d3      	bne.n	21dc <__sfvwrite_r+0x1c8>
    2234:	2300      	movs	r3, #0
    2236:	f8d5 b000 	ldr.w	fp, [r5]
    223a:	f8d5 a004 	ldr.w	sl, [r5, #4]
    223e:	9300      	str	r3, [sp, #0]
    2240:	3508      	adds	r5, #8
    2242:	e7c8      	b.n	21d6 <__sfvwrite_r+0x1c2>
    2244:	4638      	mov	r0, r7
    2246:	e781      	b.n	214c <__sfvwrite_r+0x138>
    2248:	4647      	mov	r7, r8
    224a:	46c2      	mov	sl, r8
    224c:	6820      	ldr	r0, [r4, #0]
    224e:	e771      	b.n	2134 <__sfvwrite_r+0x120>
    2250:	461a      	mov	r2, r3
    2252:	4659      	mov	r1, fp
    2254:	9301      	str	r3, [sp, #4]
    2256:	f000 fbb3 	bl	29c0 <memmove>
    225a:	68a2      	ldr	r2, [r4, #8]
    225c:	6821      	ldr	r1, [r4, #0]
    225e:	9b01      	ldr	r3, [sp, #4]
    2260:	ebb8 0807 	subs.w	r8, r8, r7
    2264:	eba2 0203 	sub.w	r2, r2, r3
    2268:	440b      	add	r3, r1
    226a:	60a2      	str	r2, [r4, #8]
    226c:	6023      	str	r3, [r4, #0]
    226e:	d1d5      	bne.n	221c <__sfvwrite_r+0x208>
    2270:	4648      	mov	r0, r9
    2272:	4621      	mov	r1, r4
    2274:	f000 ff14 	bl	30a0 <_fflush_r>
    2278:	2800      	cmp	r0, #0
    227a:	d19f      	bne.n	21bc <__sfvwrite_r+0x1a8>
    227c:	f8cd 8000 	str.w	r8, [sp]
    2280:	e7cc      	b.n	221c <__sfvwrite_r+0x208>
    2282:	4658      	mov	r0, fp
    2284:	210a      	movs	r1, #10
    2286:	4652      	mov	r2, sl
    2288:	f000 fada 	bl	2840 <memchr>
    228c:	2800      	cmp	r0, #0
    228e:	d041      	beq.n	2314 <__sfvwrite_r+0x300>
    2290:	3001      	adds	r0, #1
    2292:	2301      	movs	r3, #1
    2294:	ebcb 0800 	rsb	r8, fp, r0
    2298:	9300      	str	r3, [sp, #0]
    229a:	e7a2      	b.n	21e2 <__sfvwrite_r+0x1ce>
    229c:	f06f 4300 	mvn.w	r3, #2147483648	; 0x80000000
    22a0:	4543      	cmp	r3, r8
    22a2:	bf28      	it	cs
    22a4:	4643      	movcs	r3, r8
    22a6:	fb93 f3f2 	sdiv	r3, r3, r2
    22aa:	6a67      	ldr	r7, [r4, #36]	; 0x24
    22ac:	fb03 f302 	mul.w	r3, r3, r2
    22b0:	4648      	mov	r0, r9
    22b2:	69e1      	ldr	r1, [r4, #28]
    22b4:	465a      	mov	r2, fp
    22b6:	47b8      	blx	r7
    22b8:	2800      	cmp	r0, #0
    22ba:	f73f af47 	bgt.w	214c <__sfvwrite_r+0x138>
    22be:	e77d      	b.n	21bc <__sfvwrite_r+0x1a8>
    22c0:	4662      	mov	r2, ip
    22c2:	4659      	mov	r1, fp
    22c4:	f8cd c004 	str.w	ip, [sp, #4]
    22c8:	f000 fb7a 	bl	29c0 <memmove>
    22cc:	6823      	ldr	r3, [r4, #0]
    22ce:	f8dd c004 	ldr.w	ip, [sp, #4]
    22d2:	4648      	mov	r0, r9
    22d4:	4463      	add	r3, ip
    22d6:	6023      	str	r3, [r4, #0]
    22d8:	4621      	mov	r1, r4
    22da:	f000 fee1 	bl	30a0 <_fflush_r>
    22de:	f8dd c004 	ldr.w	ip, [sp, #4]
    22e2:	2800      	cmp	r0, #0
    22e4:	f47f af6a 	bne.w	21bc <__sfvwrite_r+0x1a8>
    22e8:	4667      	mov	r7, ip
    22ea:	e794      	b.n	2216 <__sfvwrite_r+0x202>
    22ec:	4648      	mov	r0, r9
    22ee:	f000 fbcf 	bl	2a90 <_realloc_r>
    22f2:	9b00      	ldr	r3, [sp, #0]
    22f4:	4682      	mov	sl, r0
    22f6:	2800      	cmp	r0, #0
    22f8:	f47f af12 	bne.w	2120 <__sfvwrite_r+0x10c>
    22fc:	4648      	mov	r0, r9
    22fe:	6921      	ldr	r1, [r4, #16]
    2300:	f001 f84e 	bl	33a0 <_free_r>
    2304:	89a3      	ldrh	r3, [r4, #12]
    2306:	220c      	movs	r2, #12
    2308:	f023 0380 	bic.w	r3, r3, #128	; 0x80
    230c:	b29b      	uxth	r3, r3
    230e:	f8c9 2000 	str.w	r2, [r9]
    2312:	e754      	b.n	21be <__sfvwrite_r+0x1aa>
    2314:	2301      	movs	r3, #1
    2316:	f10a 0801 	add.w	r8, sl, #1
    231a:	9300      	str	r3, [sp, #0]
    231c:	e761      	b.n	21e2 <__sfvwrite_r+0x1ce>
    231e:	f04f 30ff 	mov.w	r0, #4294967295
    2322:	e6ac      	b.n	207e <__sfvwrite_r+0x6a>
    2324:	230c      	movs	r3, #12
    2326:	f8c9 3000 	str.w	r3, [r9]
    232a:	89a3      	ldrh	r3, [r4, #12]
    232c:	e747      	b.n	21be <__sfvwrite_r+0x1aa>
    232e:	bf00      	nop
    2330:	7ffffc00 	.word	0x7ffffc00

00002334 <_malloc_r>:
    2334:	e92d 4ff0 	stmdb	sp!, {r4, r5, r6, r7, r8, r9, sl, fp, lr}
    2338:	f101 050b 	add.w	r5, r1, #11
    233c:	2d16      	cmp	r5, #22
    233e:	b083      	sub	sp, #12
    2340:	4606      	mov	r6, r0
    2342:	d927      	bls.n	2394 <_malloc_r+0x60>
    2344:	f035 0507 	bics.w	r5, r5, #7
    2348:	f100 80b6 	bmi.w	24b8 <_malloc_r+0x184>
    234c:	42a9      	cmp	r1, r5
    234e:	f200 80b3 	bhi.w	24b8 <_malloc_r+0x184>
    2352:	f000 fb99 	bl	2a88 <__malloc_lock>
    2356:	f5b5 7ffc 	cmp.w	r5, #504	; 0x1f8
    235a:	d222      	bcs.n	23a2 <_malloc_r+0x6e>
    235c:	4fbc      	ldr	r7, [pc, #752]	; (2650 <_malloc_r+0x31c>)
    235e:	08e8      	lsrs	r0, r5, #3
    2360:	eb07 03c0 	add.w	r3, r7, r0, lsl #3
    2364:	68dc      	ldr	r4, [r3, #12]
    2366:	429c      	cmp	r4, r3
    2368:	f000 81bc 	beq.w	26e4 <_malloc_r+0x3b0>
    236c:	6863      	ldr	r3, [r4, #4]
    236e:	68e1      	ldr	r1, [r4, #12]
    2370:	f023 0303 	bic.w	r3, r3, #3
    2374:	4423      	add	r3, r4
    2376:	685a      	ldr	r2, [r3, #4]
    2378:	68a5      	ldr	r5, [r4, #8]
    237a:	f042 0201 	orr.w	r2, r2, #1
    237e:	60e9      	str	r1, [r5, #12]
    2380:	4630      	mov	r0, r6
    2382:	608d      	str	r5, [r1, #8]
    2384:	605a      	str	r2, [r3, #4]
    2386:	f000 fb81 	bl	2a8c <__malloc_unlock>
    238a:	3408      	adds	r4, #8
    238c:	4620      	mov	r0, r4
    238e:	b003      	add	sp, #12
    2390:	e8bd 8ff0 	ldmia.w	sp!, {r4, r5, r6, r7, r8, r9, sl, fp, pc}
    2394:	2910      	cmp	r1, #16
    2396:	f200 808f 	bhi.w	24b8 <_malloc_r+0x184>
    239a:	f000 fb75 	bl	2a88 <__malloc_lock>
    239e:	2510      	movs	r5, #16
    23a0:	e7dc      	b.n	235c <_malloc_r+0x28>
    23a2:	0a68      	lsrs	r0, r5, #9
    23a4:	f000 808f 	beq.w	24c6 <_malloc_r+0x192>
    23a8:	2804      	cmp	r0, #4
    23aa:	f200 8147 	bhi.w	263c <_malloc_r+0x308>
    23ae:	09a8      	lsrs	r0, r5, #6
    23b0:	3038      	adds	r0, #56	; 0x38
    23b2:	0041      	lsls	r1, r0, #1
    23b4:	4fa6      	ldr	r7, [pc, #664]	; (2650 <_malloc_r+0x31c>)
    23b6:	eb07 0181 	add.w	r1, r7, r1, lsl #2
    23ba:	68cc      	ldr	r4, [r1, #12]
    23bc:	42a1      	cmp	r1, r4
    23be:	d106      	bne.n	23ce <_malloc_r+0x9a>
    23c0:	e00c      	b.n	23dc <_malloc_r+0xa8>
    23c2:	2a00      	cmp	r2, #0
    23c4:	f280 8082 	bge.w	24cc <_malloc_r+0x198>
    23c8:	68e4      	ldr	r4, [r4, #12]
    23ca:	42a1      	cmp	r1, r4
    23cc:	d006      	beq.n	23dc <_malloc_r+0xa8>
    23ce:	6863      	ldr	r3, [r4, #4]
    23d0:	f023 0303 	bic.w	r3, r3, #3
    23d4:	1b5a      	subs	r2, r3, r5
    23d6:	2a0f      	cmp	r2, #15
    23d8:	ddf3      	ble.n	23c2 <_malloc_r+0x8e>
    23da:	3801      	subs	r0, #1
    23dc:	3001      	adds	r0, #1
    23de:	499c      	ldr	r1, [pc, #624]	; (2650 <_malloc_r+0x31c>)
    23e0:	693c      	ldr	r4, [r7, #16]
    23e2:	f101 0e08 	add.w	lr, r1, #8
    23e6:	4574      	cmp	r4, lr
    23e8:	f000 8171 	beq.w	26ce <_malloc_r+0x39a>
    23ec:	6863      	ldr	r3, [r4, #4]
    23ee:	f023 0303 	bic.w	r3, r3, #3
    23f2:	1b5a      	subs	r2, r3, r5
    23f4:	2a0f      	cmp	r2, #15
    23f6:	f300 8157 	bgt.w	26a8 <_malloc_r+0x374>
    23fa:	2a00      	cmp	r2, #0
    23fc:	f8c1 e014 	str.w	lr, [r1, #20]
    2400:	f8c1 e010 	str.w	lr, [r1, #16]
    2404:	da66      	bge.n	24d4 <_malloc_r+0x1a0>
    2406:	f5b3 7f00 	cmp.w	r3, #512	; 0x200
    240a:	f080 812d 	bcs.w	2668 <_malloc_r+0x334>
    240e:	08db      	lsrs	r3, r3, #3
    2410:	eb01 08c3 	add.w	r8, r1, r3, lsl #3
    2414:	ea4f 0ca3 	mov.w	ip, r3, asr #2
    2418:	684a      	ldr	r2, [r1, #4]
    241a:	2301      	movs	r3, #1
    241c:	fa03 f30c 	lsl.w	r3, r3, ip
    2420:	f8d8 c008 	ldr.w	ip, [r8, #8]
    2424:	4313      	orrs	r3, r2
    2426:	f8c4 c008 	str.w	ip, [r4, #8]
    242a:	f8c4 800c 	str.w	r8, [r4, #12]
    242e:	604b      	str	r3, [r1, #4]
    2430:	f8c8 4008 	str.w	r4, [r8, #8]
    2434:	f8cc 400c 	str.w	r4, [ip, #12]
    2438:	1082      	asrs	r2, r0, #2
    243a:	2401      	movs	r4, #1
    243c:	4094      	lsls	r4, r2
    243e:	429c      	cmp	r4, r3
    2440:	d855      	bhi.n	24ee <_malloc_r+0x1ba>
    2442:	4223      	tst	r3, r4
    2444:	d106      	bne.n	2454 <_malloc_r+0x120>
    2446:	f020 0003 	bic.w	r0, r0, #3
    244a:	0064      	lsls	r4, r4, #1
    244c:	4223      	tst	r3, r4
    244e:	f100 0004 	add.w	r0, r0, #4
    2452:	d0fa      	beq.n	244a <_malloc_r+0x116>
    2454:	eb07 08c0 	add.w	r8, r7, r0, lsl #3
    2458:	46c4      	mov	ip, r8
    245a:	4681      	mov	r9, r0
    245c:	f8dc 300c 	ldr.w	r3, [ip, #12]
    2460:	459c      	cmp	ip, r3
    2462:	d107      	bne.n	2474 <_malloc_r+0x140>
    2464:	e135      	b.n	26d2 <_malloc_r+0x39e>
    2466:	2900      	cmp	r1, #0
    2468:	f280 8145 	bge.w	26f6 <_malloc_r+0x3c2>
    246c:	68db      	ldr	r3, [r3, #12]
    246e:	459c      	cmp	ip, r3
    2470:	f000 812f 	beq.w	26d2 <_malloc_r+0x39e>
    2474:	685a      	ldr	r2, [r3, #4]
    2476:	f022 0203 	bic.w	r2, r2, #3
    247a:	1b51      	subs	r1, r2, r5
    247c:	290f      	cmp	r1, #15
    247e:	ddf2      	ble.n	2466 <_malloc_r+0x132>
    2480:	461c      	mov	r4, r3
    2482:	68da      	ldr	r2, [r3, #12]
    2484:	f854 cf08 	ldr.w	ip, [r4, #8]!
    2488:	f045 0901 	orr.w	r9, r5, #1
    248c:	f041 0801 	orr.w	r8, r1, #1
    2490:	441d      	add	r5, r3
    2492:	f8c3 9004 	str.w	r9, [r3, #4]
    2496:	4630      	mov	r0, r6
    2498:	f8cc 200c 	str.w	r2, [ip, #12]
    249c:	f8c2 c008 	str.w	ip, [r2, #8]
    24a0:	617d      	str	r5, [r7, #20]
    24a2:	613d      	str	r5, [r7, #16]
    24a4:	f8c5 e00c 	str.w	lr, [r5, #12]
    24a8:	f8c5 e008 	str.w	lr, [r5, #8]
    24ac:	f8c5 8004 	str.w	r8, [r5, #4]
    24b0:	5069      	str	r1, [r5, r1]
    24b2:	f000 faeb 	bl	2a8c <__malloc_unlock>
    24b6:	e769      	b.n	238c <_malloc_r+0x58>
    24b8:	2400      	movs	r4, #0
    24ba:	4620      	mov	r0, r4
    24bc:	230c      	movs	r3, #12
    24be:	6033      	str	r3, [r6, #0]
    24c0:	b003      	add	sp, #12
    24c2:	e8bd 8ff0 	ldmia.w	sp!, {r4, r5, r6, r7, r8, r9, sl, fp, pc}
    24c6:	217e      	movs	r1, #126	; 0x7e
    24c8:	203f      	movs	r0, #63	; 0x3f
    24ca:	e773      	b.n	23b4 <_malloc_r+0x80>
    24cc:	4423      	add	r3, r4
    24ce:	685a      	ldr	r2, [r3, #4]
    24d0:	68e1      	ldr	r1, [r4, #12]
    24d2:	e751      	b.n	2378 <_malloc_r+0x44>
    24d4:	4423      	add	r3, r4
    24d6:	685a      	ldr	r2, [r3, #4]
    24d8:	4630      	mov	r0, r6
    24da:	f042 0201 	orr.w	r2, r2, #1
    24de:	605a      	str	r2, [r3, #4]
    24e0:	3408      	adds	r4, #8
    24e2:	f000 fad3 	bl	2a8c <__malloc_unlock>
    24e6:	4620      	mov	r0, r4
    24e8:	b003      	add	sp, #12
    24ea:	e8bd 8ff0 	ldmia.w	sp!, {r4, r5, r6, r7, r8, r9, sl, fp, pc}
    24ee:	68bc      	ldr	r4, [r7, #8]
    24f0:	6863      	ldr	r3, [r4, #4]
    24f2:	f023 0803 	bic.w	r8, r3, #3
    24f6:	4545      	cmp	r5, r8
    24f8:	d804      	bhi.n	2504 <_malloc_r+0x1d0>
    24fa:	ebc5 0308 	rsb	r3, r5, r8
    24fe:	2b0f      	cmp	r3, #15
    2500:	f300 808c 	bgt.w	261c <_malloc_r+0x2e8>
    2504:	4b53      	ldr	r3, [pc, #332]	; (2654 <_malloc_r+0x320>)
    2506:	f8df a15c 	ldr.w	sl, [pc, #348]	; 2664 <_malloc_r+0x330>
    250a:	681a      	ldr	r2, [r3, #0]
    250c:	f8da 3000 	ldr.w	r3, [sl]
    2510:	442a      	add	r2, r5
    2512:	3301      	adds	r3, #1
    2514:	eb04 0b08 	add.w	fp, r4, r8
    2518:	f000 8151 	beq.w	27be <_malloc_r+0x48a>
    251c:	f502 5280 	add.w	r2, r2, #4096	; 0x1000
    2520:	320f      	adds	r2, #15
    2522:	f422 627f 	bic.w	r2, r2, #4080	; 0xff0
    2526:	f022 020f 	bic.w	r2, r2, #15
    252a:	4611      	mov	r1, r2
    252c:	4630      	mov	r0, r6
    252e:	9201      	str	r2, [sp, #4]
    2530:	f000 fc9e 	bl	2e70 <_sbrk_r>
    2534:	f1b0 3fff 	cmp.w	r0, #4294967295
    2538:	4681      	mov	r9, r0
    253a:	9a01      	ldr	r2, [sp, #4]
    253c:	f000 8148 	beq.w	27d0 <_malloc_r+0x49c>
    2540:	4583      	cmp	fp, r0
    2542:	f200 80ef 	bhi.w	2724 <_malloc_r+0x3f0>
    2546:	4b44      	ldr	r3, [pc, #272]	; (2658 <_malloc_r+0x324>)
    2548:	45cb      	cmp	fp, r9
    254a:	6819      	ldr	r1, [r3, #0]
    254c:	4411      	add	r1, r2
    254e:	6019      	str	r1, [r3, #0]
    2550:	f000 8143 	beq.w	27da <_malloc_r+0x4a6>
    2554:	f8da 0000 	ldr.w	r0, [sl]
    2558:	f8df e108 	ldr.w	lr, [pc, #264]	; 2664 <_malloc_r+0x330>
    255c:	3001      	adds	r0, #1
    255e:	bf1b      	ittet	ne
    2560:	ebcb 0b09 	rsbne	fp, fp, r9
    2564:	4459      	addne	r1, fp
    2566:	f8ce 9000 	streq.w	r9, [lr]
    256a:	6019      	strne	r1, [r3, #0]
    256c:	f019 0107 	ands.w	r1, r9, #7
    2570:	f000 8108 	beq.w	2784 <_malloc_r+0x450>
    2574:	f1c1 0008 	rsb	r0, r1, #8
    2578:	f5c1 5180 	rsb	r1, r1, #4096	; 0x1000
    257c:	4481      	add	r9, r0
    257e:	3108      	adds	r1, #8
    2580:	444a      	add	r2, r9
    2582:	f3c2 020b 	ubfx	r2, r2, #0, #12
    2586:	ebc2 0a01 	rsb	sl, r2, r1
    258a:	4651      	mov	r1, sl
    258c:	4630      	mov	r0, r6
    258e:	9301      	str	r3, [sp, #4]
    2590:	f000 fc6e 	bl	2e70 <_sbrk_r>
    2594:	1c43      	adds	r3, r0, #1
    2596:	9b01      	ldr	r3, [sp, #4]
    2598:	f000 812d 	beq.w	27f6 <_malloc_r+0x4c2>
    259c:	ebc9 0200 	rsb	r2, r9, r0
    25a0:	4452      	add	r2, sl
    25a2:	f042 0201 	orr.w	r2, r2, #1
    25a6:	6819      	ldr	r1, [r3, #0]
    25a8:	42bc      	cmp	r4, r7
    25aa:	4451      	add	r1, sl
    25ac:	f8c7 9008 	str.w	r9, [r7, #8]
    25b0:	6019      	str	r1, [r3, #0]
    25b2:	f8c9 2004 	str.w	r2, [r9, #4]
    25b6:	f8df a0a0 	ldr.w	sl, [pc, #160]	; 2658 <_malloc_r+0x324>
    25ba:	d016      	beq.n	25ea <_malloc_r+0x2b6>
    25bc:	f1b8 0f0f 	cmp.w	r8, #15
    25c0:	f240 80ef 	bls.w	27a2 <_malloc_r+0x46e>
    25c4:	6862      	ldr	r2, [r4, #4]
    25c6:	f1a8 030c 	sub.w	r3, r8, #12
    25ca:	f023 0307 	bic.w	r3, r3, #7
    25ce:	f002 0201 	and.w	r2, r2, #1
    25d2:	18e0      	adds	r0, r4, r3
    25d4:	f04f 0e05 	mov.w	lr, #5
    25d8:	431a      	orrs	r2, r3
    25da:	2b0f      	cmp	r3, #15
    25dc:	6062      	str	r2, [r4, #4]
    25de:	f8c0 e004 	str.w	lr, [r0, #4]
    25e2:	f8c0 e008 	str.w	lr, [r0, #8]
    25e6:	f200 810a 	bhi.w	27fe <_malloc_r+0x4ca>
    25ea:	4b1c      	ldr	r3, [pc, #112]	; (265c <_malloc_r+0x328>)
    25ec:	68bc      	ldr	r4, [r7, #8]
    25ee:	681a      	ldr	r2, [r3, #0]
    25f0:	4291      	cmp	r1, r2
    25f2:	bf88      	it	hi
    25f4:	6019      	strhi	r1, [r3, #0]
    25f6:	4b1a      	ldr	r3, [pc, #104]	; (2660 <_malloc_r+0x32c>)
    25f8:	681a      	ldr	r2, [r3, #0]
    25fa:	4291      	cmp	r1, r2
    25fc:	6862      	ldr	r2, [r4, #4]
    25fe:	bf88      	it	hi
    2600:	6019      	strhi	r1, [r3, #0]
    2602:	f022 0203 	bic.w	r2, r2, #3
    2606:	4295      	cmp	r5, r2
    2608:	eba2 0305 	sub.w	r3, r2, r5
    260c:	d801      	bhi.n	2612 <_malloc_r+0x2de>
    260e:	2b0f      	cmp	r3, #15
    2610:	dc04      	bgt.n	261c <_malloc_r+0x2e8>
    2612:	4630      	mov	r0, r6
    2614:	f000 fa3a 	bl	2a8c <__malloc_unlock>
    2618:	2400      	movs	r4, #0
    261a:	e6b7      	b.n	238c <_malloc_r+0x58>
    261c:	f045 0201 	orr.w	r2, r5, #1
    2620:	f043 0301 	orr.w	r3, r3, #1
    2624:	4425      	add	r5, r4
    2626:	6062      	str	r2, [r4, #4]
    2628:	4630      	mov	r0, r6
    262a:	60bd      	str	r5, [r7, #8]
    262c:	3408      	adds	r4, #8
    262e:	606b      	str	r3, [r5, #4]
    2630:	f000 fa2c 	bl	2a8c <__malloc_unlock>
    2634:	4620      	mov	r0, r4
    2636:	b003      	add	sp, #12
    2638:	e8bd 8ff0 	ldmia.w	sp!, {r4, r5, r6, r7, r8, r9, sl, fp, pc}
    263c:	2814      	cmp	r0, #20
    263e:	d969      	bls.n	2714 <_malloc_r+0x3e0>
    2640:	2854      	cmp	r0, #84	; 0x54
    2642:	f200 8098 	bhi.w	2776 <_malloc_r+0x442>
    2646:	0b28      	lsrs	r0, r5, #12
    2648:	306e      	adds	r0, #110	; 0x6e
    264a:	0041      	lsls	r1, r0, #1
    264c:	e6b2      	b.n	23b4 <_malloc_r+0x80>
    264e:	bf00      	nop
    2650:	100008a4 	.word	0x100008a4
    2654:	10000370 	.word	0x10000370
    2658:	10000374 	.word	0x10000374
    265c:	1000036c 	.word	0x1000036c
    2660:	10000368 	.word	0x10000368
    2664:	10000cb0 	.word	0x10000cb0
    2668:	0a5a      	lsrs	r2, r3, #9
    266a:	2a04      	cmp	r2, #4
    266c:	d955      	bls.n	271a <_malloc_r+0x3e6>
    266e:	2a14      	cmp	r2, #20
    2670:	f200 80a7 	bhi.w	27c2 <_malloc_r+0x48e>
    2674:	325b      	adds	r2, #91	; 0x5b
    2676:	ea4f 0c42 	mov.w	ip, r2, lsl #1
    267a:	eb07 0c8c 	add.w	ip, r7, ip, lsl #2
    267e:	f8dc 1008 	ldr.w	r1, [ip, #8]
    2682:	f8df 81b8 	ldr.w	r8, [pc, #440]	; 283c <_malloc_r+0x508>
    2686:	4561      	cmp	r1, ip
    2688:	d07f      	beq.n	278a <_malloc_r+0x456>
    268a:	684a      	ldr	r2, [r1, #4]
    268c:	f022 0203 	bic.w	r2, r2, #3
    2690:	4293      	cmp	r3, r2
    2692:	d202      	bcs.n	269a <_malloc_r+0x366>
    2694:	6889      	ldr	r1, [r1, #8]
    2696:	458c      	cmp	ip, r1
    2698:	d1f7      	bne.n	268a <_malloc_r+0x356>
    269a:	68ca      	ldr	r2, [r1, #12]
    269c:	687b      	ldr	r3, [r7, #4]
    269e:	60e2      	str	r2, [r4, #12]
    26a0:	60a1      	str	r1, [r4, #8]
    26a2:	6094      	str	r4, [r2, #8]
    26a4:	60cc      	str	r4, [r1, #12]
    26a6:	e6c7      	b.n	2438 <_malloc_r+0x104>
    26a8:	f045 0701 	orr.w	r7, r5, #1
    26ac:	f042 0301 	orr.w	r3, r2, #1
    26b0:	4425      	add	r5, r4
    26b2:	6067      	str	r7, [r4, #4]
    26b4:	4630      	mov	r0, r6
    26b6:	614d      	str	r5, [r1, #20]
    26b8:	610d      	str	r5, [r1, #16]
    26ba:	f8c5 e00c 	str.w	lr, [r5, #12]
    26be:	f8c5 e008 	str.w	lr, [r5, #8]
    26c2:	606b      	str	r3, [r5, #4]
    26c4:	50aa      	str	r2, [r5, r2]
    26c6:	3408      	adds	r4, #8
    26c8:	f000 f9e0 	bl	2a8c <__malloc_unlock>
    26cc:	e65e      	b.n	238c <_malloc_r+0x58>
    26ce:	684b      	ldr	r3, [r1, #4]
    26d0:	e6b2      	b.n	2438 <_malloc_r+0x104>
    26d2:	f109 0901 	add.w	r9, r9, #1
    26d6:	f019 0f03 	tst.w	r9, #3
    26da:	f10c 0c08 	add.w	ip, ip, #8
    26de:	f47f aebd 	bne.w	245c <_malloc_r+0x128>
    26e2:	e02c      	b.n	273e <_malloc_r+0x40a>
    26e4:	f104 0308 	add.w	r3, r4, #8
    26e8:	6964      	ldr	r4, [r4, #20]
    26ea:	42a3      	cmp	r3, r4
    26ec:	bf08      	it	eq
    26ee:	3002      	addeq	r0, #2
    26f0:	f43f ae75 	beq.w	23de <_malloc_r+0xaa>
    26f4:	e63a      	b.n	236c <_malloc_r+0x38>
    26f6:	461c      	mov	r4, r3
    26f8:	441a      	add	r2, r3
    26fa:	6851      	ldr	r1, [r2, #4]
    26fc:	68db      	ldr	r3, [r3, #12]
    26fe:	f854 5f08 	ldr.w	r5, [r4, #8]!
    2702:	f041 0101 	orr.w	r1, r1, #1
    2706:	6051      	str	r1, [r2, #4]
    2708:	4630      	mov	r0, r6
    270a:	60eb      	str	r3, [r5, #12]
    270c:	609d      	str	r5, [r3, #8]
    270e:	f000 f9bd 	bl	2a8c <__malloc_unlock>
    2712:	e63b      	b.n	238c <_malloc_r+0x58>
    2714:	305b      	adds	r0, #91	; 0x5b
    2716:	0041      	lsls	r1, r0, #1
    2718:	e64c      	b.n	23b4 <_malloc_r+0x80>
    271a:	099a      	lsrs	r2, r3, #6
    271c:	3238      	adds	r2, #56	; 0x38
    271e:	ea4f 0c42 	mov.w	ip, r2, lsl #1
    2722:	e7aa      	b.n	267a <_malloc_r+0x346>
    2724:	42bc      	cmp	r4, r7
    2726:	4b45      	ldr	r3, [pc, #276]	; (283c <_malloc_r+0x508>)
    2728:	f43f af0d 	beq.w	2546 <_malloc_r+0x212>
    272c:	689c      	ldr	r4, [r3, #8]
    272e:	6862      	ldr	r2, [r4, #4]
    2730:	f022 0203 	bic.w	r2, r2, #3
    2734:	e767      	b.n	2606 <_malloc_r+0x2d2>
    2736:	f8d8 8000 	ldr.w	r8, [r8]
    273a:	4598      	cmp	r8, r3
    273c:	d17c      	bne.n	2838 <_malloc_r+0x504>
    273e:	f010 0f03 	tst.w	r0, #3
    2742:	f1a8 0308 	sub.w	r3, r8, #8
    2746:	f100 30ff 	add.w	r0, r0, #4294967295
    274a:	d1f4      	bne.n	2736 <_malloc_r+0x402>
    274c:	687b      	ldr	r3, [r7, #4]
    274e:	ea23 0304 	bic.w	r3, r3, r4
    2752:	607b      	str	r3, [r7, #4]
    2754:	0064      	lsls	r4, r4, #1
    2756:	429c      	cmp	r4, r3
    2758:	f63f aec9 	bhi.w	24ee <_malloc_r+0x1ba>
    275c:	2c00      	cmp	r4, #0
    275e:	f43f aec6 	beq.w	24ee <_malloc_r+0x1ba>
    2762:	4223      	tst	r3, r4
    2764:	4648      	mov	r0, r9
    2766:	f47f ae75 	bne.w	2454 <_malloc_r+0x120>
    276a:	0064      	lsls	r4, r4, #1
    276c:	4223      	tst	r3, r4
    276e:	f100 0004 	add.w	r0, r0, #4
    2772:	d0fa      	beq.n	276a <_malloc_r+0x436>
    2774:	e66e      	b.n	2454 <_malloc_r+0x120>
    2776:	f5b0 7faa 	cmp.w	r0, #340	; 0x154
    277a:	d818      	bhi.n	27ae <_malloc_r+0x47a>
    277c:	0be8      	lsrs	r0, r5, #15
    277e:	3077      	adds	r0, #119	; 0x77
    2780:	0041      	lsls	r1, r0, #1
    2782:	e617      	b.n	23b4 <_malloc_r+0x80>
    2784:	f44f 5180 	mov.w	r1, #4096	; 0x1000
    2788:	e6fa      	b.n	2580 <_malloc_r+0x24c>
    278a:	f8d8 3004 	ldr.w	r3, [r8, #4]
    278e:	1092      	asrs	r2, r2, #2
    2790:	f04f 0c01 	mov.w	ip, #1
    2794:	fa0c f202 	lsl.w	r2, ip, r2
    2798:	4313      	orrs	r3, r2
    279a:	f8c8 3004 	str.w	r3, [r8, #4]
    279e:	460a      	mov	r2, r1
    27a0:	e77d      	b.n	269e <_malloc_r+0x36a>
    27a2:	2301      	movs	r3, #1
    27a4:	f8c9 3004 	str.w	r3, [r9, #4]
    27a8:	464c      	mov	r4, r9
    27aa:	2200      	movs	r2, #0
    27ac:	e72b      	b.n	2606 <_malloc_r+0x2d2>
    27ae:	f240 5354 	movw	r3, #1364	; 0x554
    27b2:	4298      	cmp	r0, r3
    27b4:	d81c      	bhi.n	27f0 <_malloc_r+0x4bc>
    27b6:	0ca8      	lsrs	r0, r5, #18
    27b8:	307c      	adds	r0, #124	; 0x7c
    27ba:	0041      	lsls	r1, r0, #1
    27bc:	e5fa      	b.n	23b4 <_malloc_r+0x80>
    27be:	3210      	adds	r2, #16
    27c0:	e6b3      	b.n	252a <_malloc_r+0x1f6>
    27c2:	2a54      	cmp	r2, #84	; 0x54
    27c4:	d823      	bhi.n	280e <_malloc_r+0x4da>
    27c6:	0b1a      	lsrs	r2, r3, #12
    27c8:	326e      	adds	r2, #110	; 0x6e
    27ca:	ea4f 0c42 	mov.w	ip, r2, lsl #1
    27ce:	e754      	b.n	267a <_malloc_r+0x346>
    27d0:	68bc      	ldr	r4, [r7, #8]
    27d2:	6862      	ldr	r2, [r4, #4]
    27d4:	f022 0203 	bic.w	r2, r2, #3
    27d8:	e715      	b.n	2606 <_malloc_r+0x2d2>
    27da:	f3cb 000b 	ubfx	r0, fp, #0, #12
    27de:	2800      	cmp	r0, #0
    27e0:	f47f aeb8 	bne.w	2554 <_malloc_r+0x220>
    27e4:	4442      	add	r2, r8
    27e6:	68bb      	ldr	r3, [r7, #8]
    27e8:	f042 0201 	orr.w	r2, r2, #1
    27ec:	605a      	str	r2, [r3, #4]
    27ee:	e6fc      	b.n	25ea <_malloc_r+0x2b6>
    27f0:	21fc      	movs	r1, #252	; 0xfc
    27f2:	207e      	movs	r0, #126	; 0x7e
    27f4:	e5de      	b.n	23b4 <_malloc_r+0x80>
    27f6:	2201      	movs	r2, #1
    27f8:	f04f 0a00 	mov.w	sl, #0
    27fc:	e6d3      	b.n	25a6 <_malloc_r+0x272>
    27fe:	f104 0108 	add.w	r1, r4, #8
    2802:	4630      	mov	r0, r6
    2804:	f000 fdcc 	bl	33a0 <_free_r>
    2808:	f8da 1000 	ldr.w	r1, [sl]
    280c:	e6ed      	b.n	25ea <_malloc_r+0x2b6>
    280e:	f5b2 7faa 	cmp.w	r2, #340	; 0x154
    2812:	d804      	bhi.n	281e <_malloc_r+0x4ea>
    2814:	0bda      	lsrs	r2, r3, #15
    2816:	3277      	adds	r2, #119	; 0x77
    2818:	ea4f 0c42 	mov.w	ip, r2, lsl #1
    281c:	e72d      	b.n	267a <_malloc_r+0x346>
    281e:	f240 5154 	movw	r1, #1364	; 0x554
    2822:	428a      	cmp	r2, r1
    2824:	d804      	bhi.n	2830 <_malloc_r+0x4fc>
    2826:	0c9a      	lsrs	r2, r3, #18
    2828:	327c      	adds	r2, #124	; 0x7c
    282a:	ea4f 0c42 	mov.w	ip, r2, lsl #1
    282e:	e724      	b.n	267a <_malloc_r+0x346>
    2830:	f04f 0cfc 	mov.w	ip, #252	; 0xfc
    2834:	227e      	movs	r2, #126	; 0x7e
    2836:	e720      	b.n	267a <_malloc_r+0x346>
    2838:	687b      	ldr	r3, [r7, #4]
    283a:	e78b      	b.n	2754 <_malloc_r+0x420>
    283c:	100008a4 	.word	0x100008a4

00002840 <memchr>:
    2840:	0783      	lsls	r3, r0, #30
    2842:	b470      	push	{r4, r5, r6}
    2844:	b2c9      	uxtb	r1, r1
    2846:	d040      	beq.n	28ca <memchr+0x8a>
    2848:	1e54      	subs	r4, r2, #1
    284a:	2a00      	cmp	r2, #0
    284c:	d03f      	beq.n	28ce <memchr+0x8e>
    284e:	7803      	ldrb	r3, [r0, #0]
    2850:	428b      	cmp	r3, r1
    2852:	bf18      	it	ne
    2854:	1c43      	addne	r3, r0, #1
    2856:	d105      	bne.n	2864 <memchr+0x24>
    2858:	e01c      	b.n	2894 <memchr+0x54>
    285a:	b1ec      	cbz	r4, 2898 <memchr+0x58>
    285c:	7802      	ldrb	r2, [r0, #0]
    285e:	3c01      	subs	r4, #1
    2860:	428a      	cmp	r2, r1
    2862:	d017      	beq.n	2894 <memchr+0x54>
    2864:	f013 0f03 	tst.w	r3, #3
    2868:	4618      	mov	r0, r3
    286a:	f103 0301 	add.w	r3, r3, #1
    286e:	d1f4      	bne.n	285a <memchr+0x1a>
    2870:	2c03      	cmp	r4, #3
    2872:	d814      	bhi.n	289e <memchr+0x5e>
    2874:	b184      	cbz	r4, 2898 <memchr+0x58>
    2876:	7803      	ldrb	r3, [r0, #0]
    2878:	428b      	cmp	r3, r1
    287a:	d00b      	beq.n	2894 <memchr+0x54>
    287c:	1905      	adds	r5, r0, r4
    287e:	1c43      	adds	r3, r0, #1
    2880:	e002      	b.n	2888 <memchr+0x48>
    2882:	7802      	ldrb	r2, [r0, #0]
    2884:	428a      	cmp	r2, r1
    2886:	d005      	beq.n	2894 <memchr+0x54>
    2888:	42ab      	cmp	r3, r5
    288a:	4618      	mov	r0, r3
    288c:	f103 0301 	add.w	r3, r3, #1
    2890:	d1f7      	bne.n	2882 <memchr+0x42>
    2892:	2000      	movs	r0, #0
    2894:	bc70      	pop	{r4, r5, r6}
    2896:	4770      	bx	lr
    2898:	4620      	mov	r0, r4
    289a:	bc70      	pop	{r4, r5, r6}
    289c:	4770      	bx	lr
    289e:	4602      	mov	r2, r0
    28a0:	ea41 2601 	orr.w	r6, r1, r1, lsl #8
    28a4:	ea46 4606 	orr.w	r6, r6, r6, lsl #16
    28a8:	6813      	ldr	r3, [r2, #0]
    28aa:	4610      	mov	r0, r2
    28ac:	4073      	eors	r3, r6
    28ae:	f1a3 3501 	sub.w	r5, r3, #16843009	; 0x1010101
    28b2:	ea25 0303 	bic.w	r3, r5, r3
    28b6:	f013 3f80 	tst.w	r3, #2155905152	; 0x80808080
    28ba:	f102 0204 	add.w	r2, r2, #4
    28be:	d1d9      	bne.n	2874 <memchr+0x34>
    28c0:	3c04      	subs	r4, #4
    28c2:	2c03      	cmp	r4, #3
    28c4:	4610      	mov	r0, r2
    28c6:	d8ef      	bhi.n	28a8 <memchr+0x68>
    28c8:	e7d4      	b.n	2874 <memchr+0x34>
    28ca:	4614      	mov	r4, r2
    28cc:	e7d0      	b.n	2870 <memchr+0x30>
    28ce:	4610      	mov	r0, r2
    28d0:	e7e0      	b.n	2894 <memchr+0x54>
    28d2:	bf00      	nop

000028d4 <memcpy>:
    28d4:	4684      	mov	ip, r0
    28d6:	ea41 0300 	orr.w	r3, r1, r0
    28da:	f013 0303 	ands.w	r3, r3, #3
    28de:	d149      	bne.n	2974 <memcpy+0xa0>
    28e0:	3a40      	subs	r2, #64	; 0x40
    28e2:	d323      	bcc.n	292c <memcpy+0x58>
    28e4:	680b      	ldr	r3, [r1, #0]
    28e6:	6003      	str	r3, [r0, #0]
    28e8:	684b      	ldr	r3, [r1, #4]
    28ea:	6043      	str	r3, [r0, #4]
    28ec:	688b      	ldr	r3, [r1, #8]
    28ee:	6083      	str	r3, [r0, #8]
    28f0:	68cb      	ldr	r3, [r1, #12]
    28f2:	60c3      	str	r3, [r0, #12]
    28f4:	690b      	ldr	r3, [r1, #16]
    28f6:	6103      	str	r3, [r0, #16]
    28f8:	694b      	ldr	r3, [r1, #20]
    28fa:	6143      	str	r3, [r0, #20]
    28fc:	698b      	ldr	r3, [r1, #24]
    28fe:	6183      	str	r3, [r0, #24]
    2900:	69cb      	ldr	r3, [r1, #28]
    2902:	61c3      	str	r3, [r0, #28]
    2904:	6a0b      	ldr	r3, [r1, #32]
    2906:	6203      	str	r3, [r0, #32]
    2908:	6a4b      	ldr	r3, [r1, #36]	; 0x24
    290a:	6243      	str	r3, [r0, #36]	; 0x24
    290c:	6a8b      	ldr	r3, [r1, #40]	; 0x28
    290e:	6283      	str	r3, [r0, #40]	; 0x28
    2910:	6acb      	ldr	r3, [r1, #44]	; 0x2c
    2912:	62c3      	str	r3, [r0, #44]	; 0x2c
    2914:	6b0b      	ldr	r3, [r1, #48]	; 0x30
    2916:	6303      	str	r3, [r0, #48]	; 0x30
    2918:	6b4b      	ldr	r3, [r1, #52]	; 0x34
    291a:	6343      	str	r3, [r0, #52]	; 0x34
    291c:	6b8b      	ldr	r3, [r1, #56]	; 0x38
    291e:	6383      	str	r3, [r0, #56]	; 0x38
    2920:	6bcb      	ldr	r3, [r1, #60]	; 0x3c
    2922:	63c3      	str	r3, [r0, #60]	; 0x3c
    2924:	3040      	adds	r0, #64	; 0x40
    2926:	3140      	adds	r1, #64	; 0x40
    2928:	3a40      	subs	r2, #64	; 0x40
    292a:	d2db      	bcs.n	28e4 <memcpy+0x10>
    292c:	3230      	adds	r2, #48	; 0x30
    292e:	d30b      	bcc.n	2948 <memcpy+0x74>
    2930:	680b      	ldr	r3, [r1, #0]
    2932:	6003      	str	r3, [r0, #0]
    2934:	684b      	ldr	r3, [r1, #4]
    2936:	6043      	str	r3, [r0, #4]
    2938:	688b      	ldr	r3, [r1, #8]
    293a:	6083      	str	r3, [r0, #8]
    293c:	68cb      	ldr	r3, [r1, #12]
    293e:	60c3      	str	r3, [r0, #12]
    2940:	3010      	adds	r0, #16
    2942:	3110      	adds	r1, #16
    2944:	3a10      	subs	r2, #16
    2946:	d2f3      	bcs.n	2930 <memcpy+0x5c>
    2948:	320c      	adds	r2, #12
    294a:	d305      	bcc.n	2958 <memcpy+0x84>
    294c:	f851 3b04 	ldr.w	r3, [r1], #4
    2950:	f840 3b04 	str.w	r3, [r0], #4
    2954:	3a04      	subs	r2, #4
    2956:	d2f9      	bcs.n	294c <memcpy+0x78>
    2958:	3204      	adds	r2, #4
    295a:	d008      	beq.n	296e <memcpy+0x9a>
    295c:	07d2      	lsls	r2, r2, #31
    295e:	bf1c      	itt	ne
    2960:	f811 3b01 	ldrbne.w	r3, [r1], #1
    2964:	f800 3b01 	strbne.w	r3, [r0], #1
    2968:	d301      	bcc.n	296e <memcpy+0x9a>
    296a:	880b      	ldrh	r3, [r1, #0]
    296c:	8003      	strh	r3, [r0, #0]
    296e:	4660      	mov	r0, ip
    2970:	4770      	bx	lr
    2972:	bf00      	nop
    2974:	2a08      	cmp	r2, #8
    2976:	d313      	bcc.n	29a0 <memcpy+0xcc>
    2978:	078b      	lsls	r3, r1, #30
    297a:	d0b1      	beq.n	28e0 <memcpy+0xc>
    297c:	f010 0303 	ands.w	r3, r0, #3
    2980:	d0ae      	beq.n	28e0 <memcpy+0xc>
    2982:	f1c3 0304 	rsb	r3, r3, #4
    2986:	1ad2      	subs	r2, r2, r3
    2988:	07db      	lsls	r3, r3, #31
    298a:	bf1c      	itt	ne
    298c:	f811 3b01 	ldrbne.w	r3, [r1], #1
    2990:	f800 3b01 	strbne.w	r3, [r0], #1
    2994:	d3a4      	bcc.n	28e0 <memcpy+0xc>
    2996:	f831 3b02 	ldrh.w	r3, [r1], #2
    299a:	f820 3b02 	strh.w	r3, [r0], #2
    299e:	e79f      	b.n	28e0 <memcpy+0xc>
    29a0:	3a04      	subs	r2, #4
    29a2:	d3d9      	bcc.n	2958 <memcpy+0x84>
    29a4:	3a01      	subs	r2, #1
    29a6:	f811 3b01 	ldrb.w	r3, [r1], #1
    29aa:	f800 3b01 	strb.w	r3, [r0], #1
    29ae:	d2f9      	bcs.n	29a4 <memcpy+0xd0>
    29b0:	780b      	ldrb	r3, [r1, #0]
    29b2:	7003      	strb	r3, [r0, #0]
    29b4:	784b      	ldrb	r3, [r1, #1]
    29b6:	7043      	strb	r3, [r0, #1]
    29b8:	788b      	ldrb	r3, [r1, #2]
    29ba:	7083      	strb	r3, [r0, #2]
    29bc:	4660      	mov	r0, ip
    29be:	4770      	bx	lr

000029c0 <memmove>:
    29c0:	4288      	cmp	r0, r1
    29c2:	b5f0      	push	{r4, r5, r6, r7, lr}
    29c4:	d90d      	bls.n	29e2 <memmove+0x22>
    29c6:	188b      	adds	r3, r1, r2
    29c8:	4298      	cmp	r0, r3
    29ca:	d20a      	bcs.n	29e2 <memmove+0x22>
    29cc:	1881      	adds	r1, r0, r2
    29ce:	2a00      	cmp	r2, #0
    29d0:	d054      	beq.n	2a7c <memmove+0xbc>
    29d2:	1a9a      	subs	r2, r3, r2
    29d4:	f813 4d01 	ldrb.w	r4, [r3, #-1]!
    29d8:	4293      	cmp	r3, r2
    29da:	f801 4d01 	strb.w	r4, [r1, #-1]!
    29de:	d1f9      	bne.n	29d4 <memmove+0x14>
    29e0:	bdf0      	pop	{r4, r5, r6, r7, pc}
    29e2:	2a0f      	cmp	r2, #15
    29e4:	d948      	bls.n	2a78 <memmove+0xb8>
    29e6:	ea40 0301 	orr.w	r3, r0, r1
    29ea:	079b      	lsls	r3, r3, #30
    29ec:	d147      	bne.n	2a7e <memmove+0xbe>
    29ee:	4615      	mov	r5, r2
    29f0:	f100 0410 	add.w	r4, r0, #16
    29f4:	f101 0310 	add.w	r3, r1, #16
    29f8:	f853 6c10 	ldr.w	r6, [r3, #-16]
    29fc:	3d10      	subs	r5, #16
    29fe:	f844 6c10 	str.w	r6, [r4, #-16]
    2a02:	f853 6c0c 	ldr.w	r6, [r3, #-12]
    2a06:	2d0f      	cmp	r5, #15
    2a08:	f844 6c0c 	str.w	r6, [r4, #-12]
    2a0c:	f853 6c08 	ldr.w	r6, [r3, #-8]
    2a10:	f104 0410 	add.w	r4, r4, #16
    2a14:	f844 6c18 	str.w	r6, [r4, #-24]
    2a18:	f853 6c04 	ldr.w	r6, [r3, #-4]
    2a1c:	f103 0310 	add.w	r3, r3, #16
    2a20:	f844 6c14 	str.w	r6, [r4, #-20]
    2a24:	d8e8      	bhi.n	29f8 <memmove+0x38>
    2a26:	f1a2 0310 	sub.w	r3, r2, #16
    2a2a:	f023 030f 	bic.w	r3, r3, #15
    2a2e:	f002 0e0f 	and.w	lr, r2, #15
    2a32:	3310      	adds	r3, #16
    2a34:	f1be 0f03 	cmp.w	lr, #3
    2a38:	4419      	add	r1, r3
    2a3a:	4403      	add	r3, r0
    2a3c:	d921      	bls.n	2a82 <memmove+0xc2>
    2a3e:	460e      	mov	r6, r1
    2a40:	4674      	mov	r4, lr
    2a42:	1f1d      	subs	r5, r3, #4
    2a44:	f856 7b04 	ldr.w	r7, [r6], #4
    2a48:	3c04      	subs	r4, #4
    2a4a:	2c03      	cmp	r4, #3
    2a4c:	f845 7f04 	str.w	r7, [r5, #4]!
    2a50:	d8f8      	bhi.n	2a44 <memmove+0x84>
    2a52:	f1ae 0404 	sub.w	r4, lr, #4
    2a56:	f024 0403 	bic.w	r4, r4, #3
    2a5a:	3404      	adds	r4, #4
    2a5c:	4423      	add	r3, r4
    2a5e:	4421      	add	r1, r4
    2a60:	f002 0203 	and.w	r2, r2, #3
    2a64:	b152      	cbz	r2, 2a7c <memmove+0xbc>
    2a66:	3b01      	subs	r3, #1
    2a68:	440a      	add	r2, r1
    2a6a:	f811 4b01 	ldrb.w	r4, [r1], #1
    2a6e:	4291      	cmp	r1, r2
    2a70:	f803 4f01 	strb.w	r4, [r3, #1]!
    2a74:	d1f9      	bne.n	2a6a <memmove+0xaa>
    2a76:	bdf0      	pop	{r4, r5, r6, r7, pc}
    2a78:	4603      	mov	r3, r0
    2a7a:	e7f3      	b.n	2a64 <memmove+0xa4>
    2a7c:	bdf0      	pop	{r4, r5, r6, r7, pc}
    2a7e:	4603      	mov	r3, r0
    2a80:	e7f1      	b.n	2a66 <memmove+0xa6>
    2a82:	4672      	mov	r2, lr
    2a84:	e7ee      	b.n	2a64 <memmove+0xa4>
    2a86:	bf00      	nop

00002a88 <__malloc_lock>:
    2a88:	4770      	bx	lr
    2a8a:	bf00      	nop

00002a8c <__malloc_unlock>:
    2a8c:	4770      	bx	lr
    2a8e:	bf00      	nop

00002a90 <_realloc_r>:
    2a90:	e92d 4ff0 	stmdb	sp!, {r4, r5, r6, r7, r8, r9, sl, fp, lr}
    2a94:	4617      	mov	r7, r2
    2a96:	b083      	sub	sp, #12
    2a98:	460d      	mov	r5, r1
    2a9a:	2900      	cmp	r1, #0
    2a9c:	f000 80e2 	beq.w	2c64 <_realloc_r+0x1d4>
    2aa0:	4681      	mov	r9, r0
    2aa2:	f107 040b 	add.w	r4, r7, #11
    2aa6:	f7ff ffef 	bl	2a88 <__malloc_lock>
    2aaa:	f855 3c04 	ldr.w	r3, [r5, #-4]
    2aae:	2c16      	cmp	r4, #22
    2ab0:	f023 0603 	bic.w	r6, r3, #3
    2ab4:	f1a5 0808 	sub.w	r8, r5, #8
    2ab8:	d84b      	bhi.n	2b52 <_realloc_r+0xc2>
    2aba:	2210      	movs	r2, #16
    2abc:	4614      	mov	r4, r2
    2abe:	42a7      	cmp	r7, r4
    2ac0:	d84c      	bhi.n	2b5c <_realloc_r+0xcc>
    2ac2:	4296      	cmp	r6, r2
    2ac4:	da51      	bge.n	2b6a <_realloc_r+0xda>
    2ac6:	f8df b3a4 	ldr.w	fp, [pc, #932]	; 2e6c <_realloc_r+0x3dc>
    2aca:	eb08 0106 	add.w	r1, r8, r6
    2ace:	f8db 0008 	ldr.w	r0, [fp, #8]
    2ad2:	4288      	cmp	r0, r1
    2ad4:	f000 80d3 	beq.w	2c7e <_realloc_r+0x1ee>
    2ad8:	6848      	ldr	r0, [r1, #4]
    2ada:	f020 0e01 	bic.w	lr, r0, #1
    2ade:	448e      	add	lr, r1
    2ae0:	f8de e004 	ldr.w	lr, [lr, #4]
    2ae4:	f01e 0f01 	tst.w	lr, #1
    2ae8:	d154      	bne.n	2b94 <_realloc_r+0x104>
    2aea:	f020 0003 	bic.w	r0, r0, #3
    2aee:	4430      	add	r0, r6
    2af0:	4290      	cmp	r0, r2
    2af2:	f280 80bd 	bge.w	2c70 <_realloc_r+0x1e0>
    2af6:	07db      	lsls	r3, r3, #31
    2af8:	f100 8090 	bmi.w	2c1c <_realloc_r+0x18c>
    2afc:	f855 3c08 	ldr.w	r3, [r5, #-8]
    2b00:	ebc3 0a08 	rsb	sl, r3, r8
    2b04:	f8da 3004 	ldr.w	r3, [sl, #4]
    2b08:	f023 0303 	bic.w	r3, r3, #3
    2b0c:	eb00 0e03 	add.w	lr, r0, r3
    2b10:	4596      	cmp	lr, r2
    2b12:	db49      	blt.n	2ba8 <_realloc_r+0x118>
    2b14:	4657      	mov	r7, sl
    2b16:	68cb      	ldr	r3, [r1, #12]
    2b18:	6889      	ldr	r1, [r1, #8]
    2b1a:	1f32      	subs	r2, r6, #4
    2b1c:	60cb      	str	r3, [r1, #12]
    2b1e:	6099      	str	r1, [r3, #8]
    2b20:	f857 1f08 	ldr.w	r1, [r7, #8]!
    2b24:	f8da 300c 	ldr.w	r3, [sl, #12]
    2b28:	2a24      	cmp	r2, #36	; 0x24
    2b2a:	60cb      	str	r3, [r1, #12]
    2b2c:	6099      	str	r1, [r3, #8]
    2b2e:	f200 8133 	bhi.w	2d98 <_realloc_r+0x308>
    2b32:	2a13      	cmp	r2, #19
    2b34:	f240 80fa 	bls.w	2d2c <_realloc_r+0x29c>
    2b38:	682b      	ldr	r3, [r5, #0]
    2b3a:	2a1b      	cmp	r2, #27
    2b3c:	f8ca 3008 	str.w	r3, [sl, #8]
    2b40:	686b      	ldr	r3, [r5, #4]
    2b42:	f8ca 300c 	str.w	r3, [sl, #12]
    2b46:	f200 813b 	bhi.w	2dc0 <_realloc_r+0x330>
    2b4a:	3508      	adds	r5, #8
    2b4c:	f10a 0310 	add.w	r3, sl, #16
    2b50:	e0ed      	b.n	2d2e <_realloc_r+0x29e>
    2b52:	f024 0407 	bic.w	r4, r4, #7
    2b56:	2c00      	cmp	r4, #0
    2b58:	4622      	mov	r2, r4
    2b5a:	dab0      	bge.n	2abe <_realloc_r+0x2e>
    2b5c:	230c      	movs	r3, #12
    2b5e:	2000      	movs	r0, #0
    2b60:	f8c9 3000 	str.w	r3, [r9]
    2b64:	b003      	add	sp, #12
    2b66:	e8bd 8ff0 	ldmia.w	sp!, {r4, r5, r6, r7, r8, r9, sl, fp, pc}
    2b6a:	462f      	mov	r7, r5
    2b6c:	1b32      	subs	r2, r6, r4
    2b6e:	2a0f      	cmp	r2, #15
    2b70:	f003 0301 	and.w	r3, r3, #1
    2b74:	d840      	bhi.n	2bf8 <_realloc_r+0x168>
    2b76:	4333      	orrs	r3, r6
    2b78:	f8c8 3004 	str.w	r3, [r8, #4]
    2b7c:	4446      	add	r6, r8
    2b7e:	6873      	ldr	r3, [r6, #4]
    2b80:	f043 0301 	orr.w	r3, r3, #1
    2b84:	6073      	str	r3, [r6, #4]
    2b86:	4648      	mov	r0, r9
    2b88:	f7ff ff80 	bl	2a8c <__malloc_unlock>
    2b8c:	4638      	mov	r0, r7
    2b8e:	b003      	add	sp, #12
    2b90:	e8bd 8ff0 	ldmia.w	sp!, {r4, r5, r6, r7, r8, r9, sl, fp, pc}
    2b94:	07d9      	lsls	r1, r3, #31
    2b96:	d441      	bmi.n	2c1c <_realloc_r+0x18c>
    2b98:	f855 3c08 	ldr.w	r3, [r5, #-8]
    2b9c:	ebc3 0a08 	rsb	sl, r3, r8
    2ba0:	f8da 3004 	ldr.w	r3, [sl, #4]
    2ba4:	f023 0303 	bic.w	r3, r3, #3
    2ba8:	4433      	add	r3, r6
    2baa:	4293      	cmp	r3, r2
    2bac:	db36      	blt.n	2c1c <_realloc_r+0x18c>
    2bae:	4657      	mov	r7, sl
    2bb0:	f8da 100c 	ldr.w	r1, [sl, #12]
    2bb4:	f857 0f08 	ldr.w	r0, [r7, #8]!
    2bb8:	1f32      	subs	r2, r6, #4
    2bba:	2a24      	cmp	r2, #36	; 0x24
    2bbc:	60c1      	str	r1, [r0, #12]
    2bbe:	6088      	str	r0, [r1, #8]
    2bc0:	f200 80f5 	bhi.w	2dae <_realloc_r+0x31e>
    2bc4:	2a13      	cmp	r2, #19
    2bc6:	f240 80f0 	bls.w	2daa <_realloc_r+0x31a>
    2bca:	6829      	ldr	r1, [r5, #0]
    2bcc:	2a1b      	cmp	r2, #27
    2bce:	f8ca 1008 	str.w	r1, [sl, #8]
    2bd2:	6869      	ldr	r1, [r5, #4]
    2bd4:	f8ca 100c 	str.w	r1, [sl, #12]
    2bd8:	f200 8107 	bhi.w	2dea <_realloc_r+0x35a>
    2bdc:	3508      	adds	r5, #8
    2bde:	f10a 0210 	add.w	r2, sl, #16
    2be2:	6829      	ldr	r1, [r5, #0]
    2be4:	461e      	mov	r6, r3
    2be6:	6011      	str	r1, [r2, #0]
    2be8:	6869      	ldr	r1, [r5, #4]
    2bea:	46d0      	mov	r8, sl
    2bec:	6051      	str	r1, [r2, #4]
    2bee:	68ab      	ldr	r3, [r5, #8]
    2bf0:	6093      	str	r3, [r2, #8]
    2bf2:	f8da 3004 	ldr.w	r3, [sl, #4]
    2bf6:	e7b9      	b.n	2b6c <_realloc_r+0xdc>
    2bf8:	eb08 0104 	add.w	r1, r8, r4
    2bfc:	4323      	orrs	r3, r4
    2bfe:	f042 0001 	orr.w	r0, r2, #1
    2c02:	f8c8 3004 	str.w	r3, [r8, #4]
    2c06:	440a      	add	r2, r1
    2c08:	6048      	str	r0, [r1, #4]
    2c0a:	6853      	ldr	r3, [r2, #4]
    2c0c:	3108      	adds	r1, #8
    2c0e:	f043 0301 	orr.w	r3, r3, #1
    2c12:	6053      	str	r3, [r2, #4]
    2c14:	4648      	mov	r0, r9
    2c16:	f000 fbc3 	bl	33a0 <_free_r>
    2c1a:	e7b4      	b.n	2b86 <_realloc_r+0xf6>
    2c1c:	4639      	mov	r1, r7
    2c1e:	4648      	mov	r0, r9
    2c20:	f7ff fb88 	bl	2334 <_malloc_r>
    2c24:	4607      	mov	r7, r0
    2c26:	2800      	cmp	r0, #0
    2c28:	d0ad      	beq.n	2b86 <_realloc_r+0xf6>
    2c2a:	f855 3c04 	ldr.w	r3, [r5, #-4]
    2c2e:	f1a0 0108 	sub.w	r1, r0, #8
    2c32:	f023 0201 	bic.w	r2, r3, #1
    2c36:	4442      	add	r2, r8
    2c38:	4291      	cmp	r1, r2
    2c3a:	f000 80a6 	beq.w	2d8a <_realloc_r+0x2fa>
    2c3e:	1f32      	subs	r2, r6, #4
    2c40:	2a24      	cmp	r2, #36	; 0x24
    2c42:	f200 8093 	bhi.w	2d6c <_realloc_r+0x2dc>
    2c46:	2a13      	cmp	r2, #19
    2c48:	d865      	bhi.n	2d16 <_realloc_r+0x286>
    2c4a:	4603      	mov	r3, r0
    2c4c:	462a      	mov	r2, r5
    2c4e:	6811      	ldr	r1, [r2, #0]
    2c50:	6019      	str	r1, [r3, #0]
    2c52:	6851      	ldr	r1, [r2, #4]
    2c54:	6059      	str	r1, [r3, #4]
    2c56:	6892      	ldr	r2, [r2, #8]
    2c58:	609a      	str	r2, [r3, #8]
    2c5a:	4629      	mov	r1, r5
    2c5c:	4648      	mov	r0, r9
    2c5e:	f000 fb9f 	bl	33a0 <_free_r>
    2c62:	e790      	b.n	2b86 <_realloc_r+0xf6>
    2c64:	4611      	mov	r1, r2
    2c66:	b003      	add	sp, #12
    2c68:	e8bd 4ff0 	ldmia.w	sp!, {r4, r5, r6, r7, r8, r9, sl, fp, lr}
    2c6c:	f7ff bb62 	b.w	2334 <_malloc_r>
    2c70:	68ca      	ldr	r2, [r1, #12]
    2c72:	6889      	ldr	r1, [r1, #8]
    2c74:	462f      	mov	r7, r5
    2c76:	60ca      	str	r2, [r1, #12]
    2c78:	4606      	mov	r6, r0
    2c7a:	6091      	str	r1, [r2, #8]
    2c7c:	e776      	b.n	2b6c <_realloc_r+0xdc>
    2c7e:	6841      	ldr	r1, [r0, #4]
    2c80:	f104 0010 	add.w	r0, r4, #16
    2c84:	f021 0103 	bic.w	r1, r1, #3
    2c88:	4431      	add	r1, r6
    2c8a:	4281      	cmp	r1, r0
    2c8c:	da5a      	bge.n	2d44 <_realloc_r+0x2b4>
    2c8e:	07db      	lsls	r3, r3, #31
    2c90:	d4c4      	bmi.n	2c1c <_realloc_r+0x18c>
    2c92:	f855 3c08 	ldr.w	r3, [r5, #-8]
    2c96:	ebc3 0a08 	rsb	sl, r3, r8
    2c9a:	f8da 3004 	ldr.w	r3, [sl, #4]
    2c9e:	f023 0303 	bic.w	r3, r3, #3
    2ca2:	eb01 0c03 	add.w	ip, r1, r3
    2ca6:	4560      	cmp	r0, ip
    2ca8:	f73f af7e 	bgt.w	2ba8 <_realloc_r+0x118>
    2cac:	4657      	mov	r7, sl
    2cae:	f8da 300c 	ldr.w	r3, [sl, #12]
    2cb2:	f857 1f08 	ldr.w	r1, [r7, #8]!
    2cb6:	1f32      	subs	r2, r6, #4
    2cb8:	2a24      	cmp	r2, #36	; 0x24
    2cba:	60cb      	str	r3, [r1, #12]
    2cbc:	6099      	str	r1, [r3, #8]
    2cbe:	f200 80b6 	bhi.w	2e2e <_realloc_r+0x39e>
    2cc2:	2a13      	cmp	r2, #19
    2cc4:	f240 80a7 	bls.w	2e16 <_realloc_r+0x386>
    2cc8:	682b      	ldr	r3, [r5, #0]
    2cca:	2a1b      	cmp	r2, #27
    2ccc:	f8ca 3008 	str.w	r3, [sl, #8]
    2cd0:	686b      	ldr	r3, [r5, #4]
    2cd2:	f8ca 300c 	str.w	r3, [sl, #12]
    2cd6:	f200 80b3 	bhi.w	2e40 <_realloc_r+0x3b0>
    2cda:	3508      	adds	r5, #8
    2cdc:	f10a 0310 	add.w	r3, sl, #16
    2ce0:	682a      	ldr	r2, [r5, #0]
    2ce2:	601a      	str	r2, [r3, #0]
    2ce4:	686a      	ldr	r2, [r5, #4]
    2ce6:	605a      	str	r2, [r3, #4]
    2ce8:	68aa      	ldr	r2, [r5, #8]
    2cea:	609a      	str	r2, [r3, #8]
    2cec:	ebc4 030c 	rsb	r3, r4, ip
    2cf0:	eb0a 0204 	add.w	r2, sl, r4
    2cf4:	f043 0301 	orr.w	r3, r3, #1
    2cf8:	f8cb 2008 	str.w	r2, [fp, #8]
    2cfc:	6053      	str	r3, [r2, #4]
    2cfe:	f8da 3004 	ldr.w	r3, [sl, #4]
    2d02:	4648      	mov	r0, r9
    2d04:	f003 0301 	and.w	r3, r3, #1
    2d08:	431c      	orrs	r4, r3
    2d0a:	f8ca 4004 	str.w	r4, [sl, #4]
    2d0e:	f7ff febd 	bl	2a8c <__malloc_unlock>
    2d12:	4638      	mov	r0, r7
    2d14:	e73b      	b.n	2b8e <_realloc_r+0xfe>
    2d16:	682b      	ldr	r3, [r5, #0]
    2d18:	2a1b      	cmp	r2, #27
    2d1a:	6003      	str	r3, [r0, #0]
    2d1c:	686b      	ldr	r3, [r5, #4]
    2d1e:	6043      	str	r3, [r0, #4]
    2d20:	d828      	bhi.n	2d74 <_realloc_r+0x2e4>
    2d22:	f100 0308 	add.w	r3, r0, #8
    2d26:	f105 0208 	add.w	r2, r5, #8
    2d2a:	e790      	b.n	2c4e <_realloc_r+0x1be>
    2d2c:	463b      	mov	r3, r7
    2d2e:	682a      	ldr	r2, [r5, #0]
    2d30:	4676      	mov	r6, lr
    2d32:	601a      	str	r2, [r3, #0]
    2d34:	686a      	ldr	r2, [r5, #4]
    2d36:	46d0      	mov	r8, sl
    2d38:	605a      	str	r2, [r3, #4]
    2d3a:	68aa      	ldr	r2, [r5, #8]
    2d3c:	609a      	str	r2, [r3, #8]
    2d3e:	f8da 3004 	ldr.w	r3, [sl, #4]
    2d42:	e713      	b.n	2b6c <_realloc_r+0xdc>
    2d44:	1b0b      	subs	r3, r1, r4
    2d46:	eb08 0204 	add.w	r2, r8, r4
    2d4a:	f043 0301 	orr.w	r3, r3, #1
    2d4e:	f8cb 2008 	str.w	r2, [fp, #8]
    2d52:	6053      	str	r3, [r2, #4]
    2d54:	f855 3c04 	ldr.w	r3, [r5, #-4]
    2d58:	4648      	mov	r0, r9
    2d5a:	f003 0301 	and.w	r3, r3, #1
    2d5e:	431c      	orrs	r4, r3
    2d60:	f845 4c04 	str.w	r4, [r5, #-4]
    2d64:	f7ff fe92 	bl	2a8c <__malloc_unlock>
    2d68:	4628      	mov	r0, r5
    2d6a:	e710      	b.n	2b8e <_realloc_r+0xfe>
    2d6c:	4629      	mov	r1, r5
    2d6e:	f7ff fe27 	bl	29c0 <memmove>
    2d72:	e772      	b.n	2c5a <_realloc_r+0x1ca>
    2d74:	68ab      	ldr	r3, [r5, #8]
    2d76:	2a24      	cmp	r2, #36	; 0x24
    2d78:	6083      	str	r3, [r0, #8]
    2d7a:	68eb      	ldr	r3, [r5, #12]
    2d7c:	60c3      	str	r3, [r0, #12]
    2d7e:	d02b      	beq.n	2dd8 <_realloc_r+0x348>
    2d80:	f100 0310 	add.w	r3, r0, #16
    2d84:	f105 0210 	add.w	r2, r5, #16
    2d88:	e761      	b.n	2c4e <_realloc_r+0x1be>
    2d8a:	f850 2c04 	ldr.w	r2, [r0, #-4]
    2d8e:	462f      	mov	r7, r5
    2d90:	f022 0203 	bic.w	r2, r2, #3
    2d94:	4416      	add	r6, r2
    2d96:	e6e9      	b.n	2b6c <_realloc_r+0xdc>
    2d98:	4629      	mov	r1, r5
    2d9a:	4638      	mov	r0, r7
    2d9c:	4676      	mov	r6, lr
    2d9e:	46d0      	mov	r8, sl
    2da0:	f7ff fe0e 	bl	29c0 <memmove>
    2da4:	f8da 3004 	ldr.w	r3, [sl, #4]
    2da8:	e6e0      	b.n	2b6c <_realloc_r+0xdc>
    2daa:	463a      	mov	r2, r7
    2dac:	e719      	b.n	2be2 <_realloc_r+0x152>
    2dae:	4629      	mov	r1, r5
    2db0:	4638      	mov	r0, r7
    2db2:	461e      	mov	r6, r3
    2db4:	46d0      	mov	r8, sl
    2db6:	f7ff fe03 	bl	29c0 <memmove>
    2dba:	f8da 3004 	ldr.w	r3, [sl, #4]
    2dbe:	e6d5      	b.n	2b6c <_realloc_r+0xdc>
    2dc0:	68ab      	ldr	r3, [r5, #8]
    2dc2:	2a24      	cmp	r2, #36	; 0x24
    2dc4:	f8ca 3010 	str.w	r3, [sl, #16]
    2dc8:	68eb      	ldr	r3, [r5, #12]
    2dca:	f8ca 3014 	str.w	r3, [sl, #20]
    2dce:	d018      	beq.n	2e02 <_realloc_r+0x372>
    2dd0:	3510      	adds	r5, #16
    2dd2:	f10a 0318 	add.w	r3, sl, #24
    2dd6:	e7aa      	b.n	2d2e <_realloc_r+0x29e>
    2dd8:	692a      	ldr	r2, [r5, #16]
    2dda:	f100 0318 	add.w	r3, r0, #24
    2dde:	6102      	str	r2, [r0, #16]
    2de0:	6969      	ldr	r1, [r5, #20]
    2de2:	f105 0218 	add.w	r2, r5, #24
    2de6:	6141      	str	r1, [r0, #20]
    2de8:	e731      	b.n	2c4e <_realloc_r+0x1be>
    2dea:	68a9      	ldr	r1, [r5, #8]
    2dec:	2a24      	cmp	r2, #36	; 0x24
    2dee:	f8ca 1010 	str.w	r1, [sl, #16]
    2df2:	68e9      	ldr	r1, [r5, #12]
    2df4:	f8ca 1014 	str.w	r1, [sl, #20]
    2df8:	d00f      	beq.n	2e1a <_realloc_r+0x38a>
    2dfa:	3510      	adds	r5, #16
    2dfc:	f10a 0218 	add.w	r2, sl, #24
    2e00:	e6ef      	b.n	2be2 <_realloc_r+0x152>
    2e02:	692a      	ldr	r2, [r5, #16]
    2e04:	f10a 0320 	add.w	r3, sl, #32
    2e08:	f8ca 2018 	str.w	r2, [sl, #24]
    2e0c:	696a      	ldr	r2, [r5, #20]
    2e0e:	3518      	adds	r5, #24
    2e10:	f8ca 201c 	str.w	r2, [sl, #28]
    2e14:	e78b      	b.n	2d2e <_realloc_r+0x29e>
    2e16:	463b      	mov	r3, r7
    2e18:	e762      	b.n	2ce0 <_realloc_r+0x250>
    2e1a:	6929      	ldr	r1, [r5, #16]
    2e1c:	f10a 0220 	add.w	r2, sl, #32
    2e20:	f8ca 1018 	str.w	r1, [sl, #24]
    2e24:	6969      	ldr	r1, [r5, #20]
    2e26:	3518      	adds	r5, #24
    2e28:	f8ca 101c 	str.w	r1, [sl, #28]
    2e2c:	e6d9      	b.n	2be2 <_realloc_r+0x152>
    2e2e:	4629      	mov	r1, r5
    2e30:	4638      	mov	r0, r7
    2e32:	f8cd c004 	str.w	ip, [sp, #4]
    2e36:	f7ff fdc3 	bl	29c0 <memmove>
    2e3a:	f8dd c004 	ldr.w	ip, [sp, #4]
    2e3e:	e755      	b.n	2cec <_realloc_r+0x25c>
    2e40:	68ab      	ldr	r3, [r5, #8]
    2e42:	2a24      	cmp	r2, #36	; 0x24
    2e44:	f8ca 3010 	str.w	r3, [sl, #16]
    2e48:	68eb      	ldr	r3, [r5, #12]
    2e4a:	f8ca 3014 	str.w	r3, [sl, #20]
    2e4e:	d003      	beq.n	2e58 <_realloc_r+0x3c8>
    2e50:	3510      	adds	r5, #16
    2e52:	f10a 0318 	add.w	r3, sl, #24
    2e56:	e743      	b.n	2ce0 <_realloc_r+0x250>
    2e58:	692a      	ldr	r2, [r5, #16]
    2e5a:	f10a 0320 	add.w	r3, sl, #32
    2e5e:	f8ca 2018 	str.w	r2, [sl, #24]
    2e62:	696a      	ldr	r2, [r5, #20]
    2e64:	3518      	adds	r5, #24
    2e66:	f8ca 201c 	str.w	r2, [sl, #28]
    2e6a:	e739      	b.n	2ce0 <_realloc_r+0x250>
    2e6c:	100008a4 	.word	0x100008a4

00002e70 <_sbrk_r>:
    2e70:	b538      	push	{r3, r4, r5, lr}
    2e72:	4c07      	ldr	r4, [pc, #28]	; (2e90 <_sbrk_r+0x20>)
    2e74:	2300      	movs	r3, #0
    2e76:	4605      	mov	r5, r0
    2e78:	4608      	mov	r0, r1
    2e7a:	6023      	str	r3, [r4, #0]
    2e7c:	f000 ff46 	bl	3d0c <_sbrk>
    2e80:	1c43      	adds	r3, r0, #1
    2e82:	d000      	beq.n	2e86 <_sbrk_r+0x16>
    2e84:	bd38      	pop	{r3, r4, r5, pc}
    2e86:	6823      	ldr	r3, [r4, #0]
    2e88:	2b00      	cmp	r3, #0
    2e8a:	d0fb      	beq.n	2e84 <_sbrk_r+0x14>
    2e8c:	602b      	str	r3, [r5, #0]
    2e8e:	bd38      	pop	{r3, r4, r5, pc}
    2e90:	1000044c 	.word	0x1000044c

00002e94 <__swsetup_r>:
    2e94:	b538      	push	{r3, r4, r5, lr}
    2e96:	4b2f      	ldr	r3, [pc, #188]	; (2f54 <__swsetup_r+0xc0>)
    2e98:	4605      	mov	r5, r0
    2e9a:	6818      	ldr	r0, [r3, #0]
    2e9c:	460c      	mov	r4, r1
    2e9e:	b110      	cbz	r0, 2ea6 <__swsetup_r+0x12>
    2ea0:	6b83      	ldr	r3, [r0, #56]	; 0x38
    2ea2:	2b00      	cmp	r3, #0
    2ea4:	d036      	beq.n	2f14 <__swsetup_r+0x80>
    2ea6:	89a2      	ldrh	r2, [r4, #12]
    2ea8:	b293      	uxth	r3, r2
    2eaa:	0718      	lsls	r0, r3, #28
    2eac:	d50c      	bpl.n	2ec8 <__swsetup_r+0x34>
    2eae:	6920      	ldr	r0, [r4, #16]
    2eb0:	b1a8      	cbz	r0, 2ede <__swsetup_r+0x4a>
    2eb2:	f013 0201 	ands.w	r2, r3, #1
    2eb6:	d01e      	beq.n	2ef6 <__swsetup_r+0x62>
    2eb8:	6963      	ldr	r3, [r4, #20]
    2eba:	2200      	movs	r2, #0
    2ebc:	425b      	negs	r3, r3
    2ebe:	61a3      	str	r3, [r4, #24]
    2ec0:	60a2      	str	r2, [r4, #8]
    2ec2:	b1f0      	cbz	r0, 2f02 <__swsetup_r+0x6e>
    2ec4:	2000      	movs	r0, #0
    2ec6:	bd38      	pop	{r3, r4, r5, pc}
    2ec8:	06d9      	lsls	r1, r3, #27
    2eca:	d53a      	bpl.n	2f42 <__swsetup_r+0xae>
    2ecc:	0758      	lsls	r0, r3, #29
    2ece:	d424      	bmi.n	2f1a <__swsetup_r+0x86>
    2ed0:	6920      	ldr	r0, [r4, #16]
    2ed2:	f042 0308 	orr.w	r3, r2, #8
    2ed6:	81a3      	strh	r3, [r4, #12]
    2ed8:	b29b      	uxth	r3, r3
    2eda:	2800      	cmp	r0, #0
    2edc:	d1e9      	bne.n	2eb2 <__swsetup_r+0x1e>
    2ede:	f403 7220 	and.w	r2, r3, #640	; 0x280
    2ee2:	f5b2 7f00 	cmp.w	r2, #512	; 0x200
    2ee6:	d0e4      	beq.n	2eb2 <__swsetup_r+0x1e>
    2ee8:	4628      	mov	r0, r5
    2eea:	4621      	mov	r1, r4
    2eec:	f000 fb7c 	bl	35e8 <__smakebuf_r>
    2ef0:	89a3      	ldrh	r3, [r4, #12]
    2ef2:	6920      	ldr	r0, [r4, #16]
    2ef4:	e7dd      	b.n	2eb2 <__swsetup_r+0x1e>
    2ef6:	0799      	lsls	r1, r3, #30
    2ef8:	bf58      	it	pl
    2efa:	6962      	ldrpl	r2, [r4, #20]
    2efc:	60a2      	str	r2, [r4, #8]
    2efe:	2800      	cmp	r0, #0
    2f00:	d1e0      	bne.n	2ec4 <__swsetup_r+0x30>
    2f02:	89a3      	ldrh	r3, [r4, #12]
    2f04:	061a      	lsls	r2, r3, #24
    2f06:	d5de      	bpl.n	2ec6 <__swsetup_r+0x32>
    2f08:	f043 0340 	orr.w	r3, r3, #64	; 0x40
    2f0c:	81a3      	strh	r3, [r4, #12]
    2f0e:	f04f 30ff 	mov.w	r0, #4294967295
    2f12:	bd38      	pop	{r3, r4, r5, pc}
    2f14:	f000 f9d4 	bl	32c0 <__sinit>
    2f18:	e7c5      	b.n	2ea6 <__swsetup_r+0x12>
    2f1a:	6b21      	ldr	r1, [r4, #48]	; 0x30
    2f1c:	b149      	cbz	r1, 2f32 <__swsetup_r+0x9e>
    2f1e:	f104 0340 	add.w	r3, r4, #64	; 0x40
    2f22:	4299      	cmp	r1, r3
    2f24:	d003      	beq.n	2f2e <__swsetup_r+0x9a>
    2f26:	4628      	mov	r0, r5
    2f28:	f000 fa3a 	bl	33a0 <_free_r>
    2f2c:	89a2      	ldrh	r2, [r4, #12]
    2f2e:	2300      	movs	r3, #0
    2f30:	6323      	str	r3, [r4, #48]	; 0x30
    2f32:	6920      	ldr	r0, [r4, #16]
    2f34:	f022 0224 	bic.w	r2, r2, #36	; 0x24
    2f38:	2300      	movs	r3, #0
    2f3a:	b292      	uxth	r2, r2
    2f3c:	e884 0009 	stmia.w	r4, {r0, r3}
    2f40:	e7c7      	b.n	2ed2 <__swsetup_r+0x3e>
    2f42:	f042 0240 	orr.w	r2, r2, #64	; 0x40
    2f46:	2309      	movs	r3, #9
    2f48:	602b      	str	r3, [r5, #0]
    2f4a:	f04f 30ff 	mov.w	r0, #4294967295
    2f4e:	81a2      	strh	r2, [r4, #12]
    2f50:	bd38      	pop	{r3, r4, r5, pc}
    2f52:	bf00      	nop
    2f54:	100008a0 	.word	0x100008a0

00002f58 <__sflush_r>:
    2f58:	898b      	ldrh	r3, [r1, #12]
    2f5a:	e92d 41f0 	stmdb	sp!, {r4, r5, r6, r7, r8, lr}
    2f5e:	b29a      	uxth	r2, r3
    2f60:	460d      	mov	r5, r1
    2f62:	0711      	lsls	r1, r2, #28
    2f64:	4680      	mov	r8, r0
    2f66:	d43c      	bmi.n	2fe2 <__sflush_r+0x8a>
    2f68:	686a      	ldr	r2, [r5, #4]
    2f6a:	f443 6300 	orr.w	r3, r3, #2048	; 0x800
    2f6e:	2a00      	cmp	r2, #0
    2f70:	81ab      	strh	r3, [r5, #12]
    2f72:	dd65      	ble.n	3040 <__sflush_r+0xe8>
    2f74:	6aae      	ldr	r6, [r5, #40]	; 0x28
    2f76:	2e00      	cmp	r6, #0
    2f78:	d04b      	beq.n	3012 <__sflush_r+0xba>
    2f7a:	b29b      	uxth	r3, r3
    2f7c:	f403 5280 	and.w	r2, r3, #4096	; 0x1000
    2f80:	2100      	movs	r1, #0
    2f82:	b292      	uxth	r2, r2
    2f84:	f8d8 4000 	ldr.w	r4, [r8]
    2f88:	f8c8 1000 	str.w	r1, [r8]
    2f8c:	2a00      	cmp	r2, #0
    2f8e:	d05b      	beq.n	3048 <__sflush_r+0xf0>
    2f90:	6d2a      	ldr	r2, [r5, #80]	; 0x50
    2f92:	075f      	lsls	r7, r3, #29
    2f94:	d505      	bpl.n	2fa2 <__sflush_r+0x4a>
    2f96:	6869      	ldr	r1, [r5, #4]
    2f98:	6b2b      	ldr	r3, [r5, #48]	; 0x30
    2f9a:	1a52      	subs	r2, r2, r1
    2f9c:	b10b      	cbz	r3, 2fa2 <__sflush_r+0x4a>
    2f9e:	6beb      	ldr	r3, [r5, #60]	; 0x3c
    2fa0:	1ad2      	subs	r2, r2, r3
    2fa2:	4640      	mov	r0, r8
    2fa4:	69e9      	ldr	r1, [r5, #28]
    2fa6:	2300      	movs	r3, #0
    2fa8:	47b0      	blx	r6
    2faa:	1c46      	adds	r6, r0, #1
    2fac:	d056      	beq.n	305c <__sflush_r+0x104>
    2fae:	89ab      	ldrh	r3, [r5, #12]
    2fb0:	692a      	ldr	r2, [r5, #16]
    2fb2:	f423 6300 	bic.w	r3, r3, #2048	; 0x800
    2fb6:	b29b      	uxth	r3, r3
    2fb8:	2100      	movs	r1, #0
    2fba:	602a      	str	r2, [r5, #0]
    2fbc:	04da      	lsls	r2, r3, #19
    2fbe:	81ab      	strh	r3, [r5, #12]
    2fc0:	6069      	str	r1, [r5, #4]
    2fc2:	d43b      	bmi.n	303c <__sflush_r+0xe4>
    2fc4:	6b29      	ldr	r1, [r5, #48]	; 0x30
    2fc6:	f8c8 4000 	str.w	r4, [r8]
    2fca:	b311      	cbz	r1, 3012 <__sflush_r+0xba>
    2fcc:	f105 0340 	add.w	r3, r5, #64	; 0x40
    2fd0:	4299      	cmp	r1, r3
    2fd2:	d002      	beq.n	2fda <__sflush_r+0x82>
    2fd4:	4640      	mov	r0, r8
    2fd6:	f000 f9e3 	bl	33a0 <_free_r>
    2fda:	2000      	movs	r0, #0
    2fdc:	6328      	str	r0, [r5, #48]	; 0x30
    2fde:	e8bd 81f0 	ldmia.w	sp!, {r4, r5, r6, r7, r8, pc}
    2fe2:	692e      	ldr	r6, [r5, #16]
    2fe4:	b1ae      	cbz	r6, 3012 <__sflush_r+0xba>
    2fe6:	0791      	lsls	r1, r2, #30
    2fe8:	682c      	ldr	r4, [r5, #0]
    2fea:	bf0c      	ite	eq
    2fec:	696b      	ldreq	r3, [r5, #20]
    2fee:	2300      	movne	r3, #0
    2ff0:	602e      	str	r6, [r5, #0]
    2ff2:	1ba4      	subs	r4, r4, r6
    2ff4:	60ab      	str	r3, [r5, #8]
    2ff6:	e00a      	b.n	300e <__sflush_r+0xb6>
    2ff8:	4632      	mov	r2, r6
    2ffa:	4623      	mov	r3, r4
    2ffc:	6a6f      	ldr	r7, [r5, #36]	; 0x24
    2ffe:	4640      	mov	r0, r8
    3000:	69e9      	ldr	r1, [r5, #28]
    3002:	47b8      	blx	r7
    3004:	2800      	cmp	r0, #0
    3006:	eba4 0400 	sub.w	r4, r4, r0
    300a:	4406      	add	r6, r0
    300c:	dd04      	ble.n	3018 <__sflush_r+0xc0>
    300e:	2c00      	cmp	r4, #0
    3010:	dcf2      	bgt.n	2ff8 <__sflush_r+0xa0>
    3012:	2000      	movs	r0, #0
    3014:	e8bd 81f0 	ldmia.w	sp!, {r4, r5, r6, r7, r8, pc}
    3018:	89ab      	ldrh	r3, [r5, #12]
    301a:	f04f 30ff 	mov.w	r0, #4294967295
    301e:	f043 0340 	orr.w	r3, r3, #64	; 0x40
    3022:	81ab      	strh	r3, [r5, #12]
    3024:	e8bd 81f0 	ldmia.w	sp!, {r4, r5, r6, r7, r8, pc}
    3028:	89ab      	ldrh	r3, [r5, #12]
    302a:	692a      	ldr	r2, [r5, #16]
    302c:	f423 6300 	bic.w	r3, r3, #2048	; 0x800
    3030:	b29b      	uxth	r3, r3
    3032:	81ab      	strh	r3, [r5, #12]
    3034:	04db      	lsls	r3, r3, #19
    3036:	6069      	str	r1, [r5, #4]
    3038:	602a      	str	r2, [r5, #0]
    303a:	d5c3      	bpl.n	2fc4 <__sflush_r+0x6c>
    303c:	6528      	str	r0, [r5, #80]	; 0x50
    303e:	e7c1      	b.n	2fc4 <__sflush_r+0x6c>
    3040:	6bea      	ldr	r2, [r5, #60]	; 0x3c
    3042:	2a00      	cmp	r2, #0
    3044:	dc96      	bgt.n	2f74 <__sflush_r+0x1c>
    3046:	e7e4      	b.n	3012 <__sflush_r+0xba>
    3048:	2301      	movs	r3, #1
    304a:	4640      	mov	r0, r8
    304c:	69e9      	ldr	r1, [r5, #28]
    304e:	47b0      	blx	r6
    3050:	1c43      	adds	r3, r0, #1
    3052:	4602      	mov	r2, r0
    3054:	d019      	beq.n	308a <__sflush_r+0x132>
    3056:	89ab      	ldrh	r3, [r5, #12]
    3058:	6aae      	ldr	r6, [r5, #40]	; 0x28
    305a:	e79a      	b.n	2f92 <__sflush_r+0x3a>
    305c:	f8d8 1000 	ldr.w	r1, [r8]
    3060:	2900      	cmp	r1, #0
    3062:	d0e1      	beq.n	3028 <__sflush_r+0xd0>
    3064:	291d      	cmp	r1, #29
    3066:	d007      	beq.n	3078 <__sflush_r+0x120>
    3068:	2916      	cmp	r1, #22
    306a:	d005      	beq.n	3078 <__sflush_r+0x120>
    306c:	89ab      	ldrh	r3, [r5, #12]
    306e:	f043 0340 	orr.w	r3, r3, #64	; 0x40
    3072:	81ab      	strh	r3, [r5, #12]
    3074:	e8bd 81f0 	ldmia.w	sp!, {r4, r5, r6, r7, r8, pc}
    3078:	89ab      	ldrh	r3, [r5, #12]
    307a:	6929      	ldr	r1, [r5, #16]
    307c:	f423 6300 	bic.w	r3, r3, #2048	; 0x800
    3080:	2200      	movs	r2, #0
    3082:	81ab      	strh	r3, [r5, #12]
    3084:	e885 0006 	stmia.w	r5, {r1, r2}
    3088:	e79c      	b.n	2fc4 <__sflush_r+0x6c>
    308a:	f8d8 3000 	ldr.w	r3, [r8]
    308e:	2b00      	cmp	r3, #0
    3090:	d0e1      	beq.n	3056 <__sflush_r+0xfe>
    3092:	2b1d      	cmp	r3, #29
    3094:	d001      	beq.n	309a <__sflush_r+0x142>
    3096:	2b16      	cmp	r3, #22
    3098:	d1be      	bne.n	3018 <__sflush_r+0xc0>
    309a:	f8c8 4000 	str.w	r4, [r8]
    309e:	e7b8      	b.n	3012 <__sflush_r+0xba>

000030a0 <_fflush_r>:
    30a0:	b510      	push	{r4, lr}
    30a2:	4604      	mov	r4, r0
    30a4:	b082      	sub	sp, #8
    30a6:	b108      	cbz	r0, 30ac <_fflush_r+0xc>
    30a8:	6b83      	ldr	r3, [r0, #56]	; 0x38
    30aa:	b153      	cbz	r3, 30c2 <_fflush_r+0x22>
    30ac:	f9b1 000c 	ldrsh.w	r0, [r1, #12]
    30b0:	b908      	cbnz	r0, 30b6 <_fflush_r+0x16>
    30b2:	b002      	add	sp, #8
    30b4:	bd10      	pop	{r4, pc}
    30b6:	4620      	mov	r0, r4
    30b8:	b002      	add	sp, #8
    30ba:	e8bd 4010 	ldmia.w	sp!, {r4, lr}
    30be:	f7ff bf4b 	b.w	2f58 <__sflush_r>
    30c2:	9101      	str	r1, [sp, #4]
    30c4:	f000 f8fc 	bl	32c0 <__sinit>
    30c8:	9901      	ldr	r1, [sp, #4]
    30ca:	e7ef      	b.n	30ac <_fflush_r+0xc>

000030cc <fflush>:
    30cc:	b120      	cbz	r0, 30d8 <fflush+0xc>
    30ce:	4b05      	ldr	r3, [pc, #20]	; (30e4 <fflush+0x18>)
    30d0:	4601      	mov	r1, r0
    30d2:	6818      	ldr	r0, [r3, #0]
    30d4:	f7ff bfe4 	b.w	30a0 <_fflush_r>
    30d8:	4b03      	ldr	r3, [pc, #12]	; (30e8 <fflush+0x1c>)
    30da:	4904      	ldr	r1, [pc, #16]	; (30ec <fflush+0x20>)
    30dc:	6818      	ldr	r0, [r3, #0]
    30de:	f000 ba5b 	b.w	3598 <_fwalk_reent>
    30e2:	bf00      	nop
    30e4:	100008a0 	.word	0x100008a0
    30e8:	000040a8 	.word	0x000040a8
    30ec:	000030a1 	.word	0x000030a1

000030f0 <__fp_lock>:
    30f0:	2000      	movs	r0, #0
    30f2:	4770      	bx	lr

000030f4 <__fp_unlock>:
    30f4:	2000      	movs	r0, #0
    30f6:	4770      	bx	lr

000030f8 <_cleanup_r>:
    30f8:	4901      	ldr	r1, [pc, #4]	; (3100 <_cleanup_r+0x8>)
    30fa:	f000 ba4d 	b.w	3598 <_fwalk_reent>
    30fe:	bf00      	nop
    3100:	000038dd 	.word	0x000038dd

00003104 <__sinit.part.1>:
    3104:	e92d 4ff0 	stmdb	sp!, {r4, r5, r6, r7, r8, r9, sl, fp, lr}
    3108:	4607      	mov	r7, r0
    310a:	4835      	ldr	r0, [pc, #212]	; (31e0 <__sinit.part.1+0xdc>)
    310c:	687d      	ldr	r5, [r7, #4]
    310e:	2400      	movs	r4, #0
    3110:	f507 723b 	add.w	r2, r7, #748	; 0x2ec
    3114:	2304      	movs	r3, #4
    3116:	2103      	movs	r1, #3
    3118:	63f8      	str	r0, [r7, #60]	; 0x3c
    311a:	f8c7 12e4 	str.w	r1, [r7, #740]	; 0x2e4
    311e:	f8c7 22e8 	str.w	r2, [r7, #744]	; 0x2e8
    3122:	f8c7 42e0 	str.w	r4, [r7, #736]	; 0x2e0
    3126:	b083      	sub	sp, #12
    3128:	602c      	str	r4, [r5, #0]
    312a:	606c      	str	r4, [r5, #4]
    312c:	60ac      	str	r4, [r5, #8]
    312e:	666c      	str	r4, [r5, #100]	; 0x64
    3130:	81ec      	strh	r4, [r5, #14]
    3132:	612c      	str	r4, [r5, #16]
    3134:	616c      	str	r4, [r5, #20]
    3136:	61ac      	str	r4, [r5, #24]
    3138:	81ab      	strh	r3, [r5, #12]
    313a:	4621      	mov	r1, r4
    313c:	f105 005c 	add.w	r0, r5, #92	; 0x5c
    3140:	2208      	movs	r2, #8
    3142:	f000 fac1 	bl	36c8 <memset>
    3146:	f8df b09c 	ldr.w	fp, [pc, #156]	; 31e4 <__sinit.part.1+0xe0>
    314a:	68be      	ldr	r6, [r7, #8]
    314c:	f8df a098 	ldr.w	sl, [pc, #152]	; 31e8 <__sinit.part.1+0xe4>
    3150:	f8df 9098 	ldr.w	r9, [pc, #152]	; 31ec <__sinit.part.1+0xe8>
    3154:	f8df 8098 	ldr.w	r8, [pc, #152]	; 31f0 <__sinit.part.1+0xec>
    3158:	2301      	movs	r3, #1
    315a:	2209      	movs	r2, #9
    315c:	f8c5 b020 	str.w	fp, [r5, #32]
    3160:	f8c5 a024 	str.w	sl, [r5, #36]	; 0x24
    3164:	f8c5 9028 	str.w	r9, [r5, #40]	; 0x28
    3168:	f8c5 802c 	str.w	r8, [r5, #44]	; 0x2c
    316c:	61ed      	str	r5, [r5, #28]
    316e:	4621      	mov	r1, r4
    3170:	81f3      	strh	r3, [r6, #14]
    3172:	81b2      	strh	r2, [r6, #12]
    3174:	f106 005c 	add.w	r0, r6, #92	; 0x5c
    3178:	6034      	str	r4, [r6, #0]
    317a:	6074      	str	r4, [r6, #4]
    317c:	60b4      	str	r4, [r6, #8]
    317e:	6674      	str	r4, [r6, #100]	; 0x64
    3180:	6134      	str	r4, [r6, #16]
    3182:	6174      	str	r4, [r6, #20]
    3184:	61b4      	str	r4, [r6, #24]
    3186:	2208      	movs	r2, #8
    3188:	9301      	str	r3, [sp, #4]
    318a:	f000 fa9d 	bl	36c8 <memset>
    318e:	68fd      	ldr	r5, [r7, #12]
    3190:	2012      	movs	r0, #18
    3192:	2202      	movs	r2, #2
    3194:	61f6      	str	r6, [r6, #28]
    3196:	f8c6 b020 	str.w	fp, [r6, #32]
    319a:	f8c6 a024 	str.w	sl, [r6, #36]	; 0x24
    319e:	f8c6 9028 	str.w	r9, [r6, #40]	; 0x28
    31a2:	f8c6 802c 	str.w	r8, [r6, #44]	; 0x2c
    31a6:	4621      	mov	r1, r4
    31a8:	81a8      	strh	r0, [r5, #12]
    31aa:	81ea      	strh	r2, [r5, #14]
    31ac:	602c      	str	r4, [r5, #0]
    31ae:	606c      	str	r4, [r5, #4]
    31b0:	60ac      	str	r4, [r5, #8]
    31b2:	666c      	str	r4, [r5, #100]	; 0x64
    31b4:	612c      	str	r4, [r5, #16]
    31b6:	616c      	str	r4, [r5, #20]
    31b8:	61ac      	str	r4, [r5, #24]
    31ba:	f105 005c 	add.w	r0, r5, #92	; 0x5c
    31be:	2208      	movs	r2, #8
    31c0:	f000 fa82 	bl	36c8 <memset>
    31c4:	9b01      	ldr	r3, [sp, #4]
    31c6:	61ed      	str	r5, [r5, #28]
    31c8:	f8c5 b020 	str.w	fp, [r5, #32]
    31cc:	f8c5 a024 	str.w	sl, [r5, #36]	; 0x24
    31d0:	f8c5 9028 	str.w	r9, [r5, #40]	; 0x28
    31d4:	f8c5 802c 	str.w	r8, [r5, #44]	; 0x2c
    31d8:	63bb      	str	r3, [r7, #56]	; 0x38
    31da:	b003      	add	sp, #12
    31dc:	e8bd 8ff0 	ldmia.w	sp!, {r4, r5, r6, r7, r8, r9, sl, fp, pc}
    31e0:	000030f9 	.word	0x000030f9
    31e4:	00003809 	.word	0x00003809
    31e8:	00003831 	.word	0x00003831
    31ec:	00003869 	.word	0x00003869
    31f0:	00003889 	.word	0x00003889

000031f4 <__sfmoreglue>:
    31f4:	b570      	push	{r4, r5, r6, lr}
    31f6:	2368      	movs	r3, #104	; 0x68
    31f8:	1e4d      	subs	r5, r1, #1
    31fa:	fb03 f505 	mul.w	r5, r3, r5
    31fe:	460e      	mov	r6, r1
    3200:	f105 0174 	add.w	r1, r5, #116	; 0x74
    3204:	f7ff f896 	bl	2334 <_malloc_r>
    3208:	4604      	mov	r4, r0
    320a:	b140      	cbz	r0, 321e <__sfmoreglue+0x2a>
    320c:	2100      	movs	r1, #0
    320e:	300c      	adds	r0, #12
    3210:	6066      	str	r6, [r4, #4]
    3212:	f105 0268 	add.w	r2, r5, #104	; 0x68
    3216:	6021      	str	r1, [r4, #0]
    3218:	60a0      	str	r0, [r4, #8]
    321a:	f000 fa55 	bl	36c8 <memset>
    321e:	4620      	mov	r0, r4
    3220:	bd70      	pop	{r4, r5, r6, pc}
    3222:	bf00      	nop

00003224 <__sfp>:
    3224:	4b20      	ldr	r3, [pc, #128]	; (32a8 <__sfp+0x84>)
    3226:	b570      	push	{r4, r5, r6, lr}
    3228:	681d      	ldr	r5, [r3, #0]
    322a:	4606      	mov	r6, r0
    322c:	6bab      	ldr	r3, [r5, #56]	; 0x38
    322e:	b913      	cbnz	r3, 3236 <__sfp+0x12>
    3230:	4628      	mov	r0, r5
    3232:	f7ff ff67 	bl	3104 <__sinit.part.1>
    3236:	f505 7538 	add.w	r5, r5, #736	; 0x2e0
    323a:	686b      	ldr	r3, [r5, #4]
    323c:	68ac      	ldr	r4, [r5, #8]
    323e:	3b01      	subs	r3, #1
    3240:	d505      	bpl.n	324e <__sfp+0x2a>
    3242:	e021      	b.n	3288 <__sfp+0x64>
    3244:	3b01      	subs	r3, #1
    3246:	1c5a      	adds	r2, r3, #1
    3248:	f104 0468 	add.w	r4, r4, #104	; 0x68
    324c:	d01c      	beq.n	3288 <__sfp+0x64>
    324e:	f9b4 200c 	ldrsh.w	r2, [r4, #12]
    3252:	2a00      	cmp	r2, #0
    3254:	d1f6      	bne.n	3244 <__sfp+0x20>
    3256:	f64f 72ff 	movw	r2, #65535	; 0xffff
    325a:	2500      	movs	r5, #0
    325c:	2301      	movs	r3, #1
    325e:	81e2      	strh	r2, [r4, #14]
    3260:	81a3      	strh	r3, [r4, #12]
    3262:	6665      	str	r5, [r4, #100]	; 0x64
    3264:	6025      	str	r5, [r4, #0]
    3266:	60a5      	str	r5, [r4, #8]
    3268:	6065      	str	r5, [r4, #4]
    326a:	6125      	str	r5, [r4, #16]
    326c:	6165      	str	r5, [r4, #20]
    326e:	61a5      	str	r5, [r4, #24]
    3270:	4629      	mov	r1, r5
    3272:	f104 005c 	add.w	r0, r4, #92	; 0x5c
    3276:	2208      	movs	r2, #8
    3278:	f000 fa26 	bl	36c8 <memset>
    327c:	4620      	mov	r0, r4
    327e:	6325      	str	r5, [r4, #48]	; 0x30
    3280:	6365      	str	r5, [r4, #52]	; 0x34
    3282:	6465      	str	r5, [r4, #68]	; 0x44
    3284:	64a5      	str	r5, [r4, #72]	; 0x48
    3286:	bd70      	pop	{r4, r5, r6, pc}
    3288:	682b      	ldr	r3, [r5, #0]
    328a:	b10b      	cbz	r3, 3290 <__sfp+0x6c>
    328c:	461d      	mov	r5, r3
    328e:	e7d4      	b.n	323a <__sfp+0x16>
    3290:	4630      	mov	r0, r6
    3292:	2104      	movs	r1, #4
    3294:	f7ff ffae 	bl	31f4 <__sfmoreglue>
    3298:	6028      	str	r0, [r5, #0]
    329a:	b108      	cbz	r0, 32a0 <__sfp+0x7c>
    329c:	4605      	mov	r5, r0
    329e:	e7cc      	b.n	323a <__sfp+0x16>
    32a0:	230c      	movs	r3, #12
    32a2:	6033      	str	r3, [r6, #0]
    32a4:	bd70      	pop	{r4, r5, r6, pc}
    32a6:	bf00      	nop
    32a8:	000040a8 	.word	0x000040a8

000032ac <_cleanup>:
    32ac:	4b02      	ldr	r3, [pc, #8]	; (32b8 <_cleanup+0xc>)
    32ae:	4903      	ldr	r1, [pc, #12]	; (32bc <_cleanup+0x10>)
    32b0:	6818      	ldr	r0, [r3, #0]
    32b2:	f000 b971 	b.w	3598 <_fwalk_reent>
    32b6:	bf00      	nop
    32b8:	000040a8 	.word	0x000040a8
    32bc:	000038dd 	.word	0x000038dd

000032c0 <__sinit>:
    32c0:	6b83      	ldr	r3, [r0, #56]	; 0x38
    32c2:	b103      	cbz	r3, 32c6 <__sinit+0x6>
    32c4:	4770      	bx	lr
    32c6:	f7ff bf1d 	b.w	3104 <__sinit.part.1>
    32ca:	bf00      	nop

000032cc <__sfp_lock_acquire>:
    32cc:	4770      	bx	lr
    32ce:	bf00      	nop

000032d0 <__sfp_lock_release>:
    32d0:	4770      	bx	lr
    32d2:	bf00      	nop

000032d4 <__sinit_lock_acquire>:
    32d4:	4770      	bx	lr
    32d6:	bf00      	nop

000032d8 <__sinit_lock_release>:
    32d8:	4770      	bx	lr
    32da:	bf00      	nop

000032dc <__fp_lock_all>:
    32dc:	4b02      	ldr	r3, [pc, #8]	; (32e8 <__fp_lock_all+0xc>)
    32de:	4903      	ldr	r1, [pc, #12]	; (32ec <__fp_lock_all+0x10>)
    32e0:	6818      	ldr	r0, [r3, #0]
    32e2:	f000 b935 	b.w	3550 <_fwalk>
    32e6:	bf00      	nop
    32e8:	100008a0 	.word	0x100008a0
    32ec:	000030f1 	.word	0x000030f1

000032f0 <__fp_unlock_all>:
    32f0:	4b02      	ldr	r3, [pc, #8]	; (32fc <__fp_unlock_all+0xc>)
    32f2:	4903      	ldr	r1, [pc, #12]	; (3300 <__fp_unlock_all+0x10>)
    32f4:	6818      	ldr	r0, [r3, #0]
    32f6:	f000 b92b 	b.w	3550 <_fwalk>
    32fa:	bf00      	nop
    32fc:	100008a0 	.word	0x100008a0
    3300:	000030f5 	.word	0x000030f5

00003304 <_malloc_trim_r>:
    3304:	b5f8      	push	{r3, r4, r5, r6, r7, lr}
    3306:	460c      	mov	r4, r1
    3308:	4f22      	ldr	r7, [pc, #136]	; (3394 <_malloc_trim_r+0x90>)
    330a:	4606      	mov	r6, r0
    330c:	f7ff fbbc 	bl	2a88 <__malloc_lock>
    3310:	68bb      	ldr	r3, [r7, #8]
    3312:	685d      	ldr	r5, [r3, #4]
    3314:	f025 0503 	bic.w	r5, r5, #3
    3318:	1b29      	subs	r1, r5, r4
    331a:	f601 71ef 	addw	r1, r1, #4079	; 0xfef
    331e:	f421 617f 	bic.w	r1, r1, #4080	; 0xff0
    3322:	f021 010f 	bic.w	r1, r1, #15
    3326:	f5a1 5480 	sub.w	r4, r1, #4096	; 0x1000
    332a:	f5b4 5f80 	cmp.w	r4, #4096	; 0x1000
    332e:	db07      	blt.n	3340 <_malloc_trim_r+0x3c>
    3330:	4630      	mov	r0, r6
    3332:	2100      	movs	r1, #0
    3334:	f7ff fd9c 	bl	2e70 <_sbrk_r>
    3338:	68bb      	ldr	r3, [r7, #8]
    333a:	442b      	add	r3, r5
    333c:	4298      	cmp	r0, r3
    333e:	d004      	beq.n	334a <_malloc_trim_r+0x46>
    3340:	4630      	mov	r0, r6
    3342:	f7ff fba3 	bl	2a8c <__malloc_unlock>
    3346:	2000      	movs	r0, #0
    3348:	bdf8      	pop	{r3, r4, r5, r6, r7, pc}
    334a:	4630      	mov	r0, r6
    334c:	4261      	negs	r1, r4
    334e:	f7ff fd8f 	bl	2e70 <_sbrk_r>
    3352:	3001      	adds	r0, #1
    3354:	d00d      	beq.n	3372 <_malloc_trim_r+0x6e>
    3356:	4b10      	ldr	r3, [pc, #64]	; (3398 <_malloc_trim_r+0x94>)
    3358:	68ba      	ldr	r2, [r7, #8]
    335a:	6819      	ldr	r1, [r3, #0]
    335c:	1b2d      	subs	r5, r5, r4
    335e:	f045 0501 	orr.w	r5, r5, #1
    3362:	4630      	mov	r0, r6
    3364:	1b09      	subs	r1, r1, r4
    3366:	6055      	str	r5, [r2, #4]
    3368:	6019      	str	r1, [r3, #0]
    336a:	f7ff fb8f 	bl	2a8c <__malloc_unlock>
    336e:	2001      	movs	r0, #1
    3370:	bdf8      	pop	{r3, r4, r5, r6, r7, pc}
    3372:	4630      	mov	r0, r6
    3374:	2100      	movs	r1, #0
    3376:	f7ff fd7b 	bl	2e70 <_sbrk_r>
    337a:	68ba      	ldr	r2, [r7, #8]
    337c:	1a83      	subs	r3, r0, r2
    337e:	2b0f      	cmp	r3, #15
    3380:	ddde      	ble.n	3340 <_malloc_trim_r+0x3c>
    3382:	4c06      	ldr	r4, [pc, #24]	; (339c <_malloc_trim_r+0x98>)
    3384:	4904      	ldr	r1, [pc, #16]	; (3398 <_malloc_trim_r+0x94>)
    3386:	6824      	ldr	r4, [r4, #0]
    3388:	f043 0301 	orr.w	r3, r3, #1
    338c:	1b00      	subs	r0, r0, r4
    338e:	6053      	str	r3, [r2, #4]
    3390:	6008      	str	r0, [r1, #0]
    3392:	e7d5      	b.n	3340 <_malloc_trim_r+0x3c>
    3394:	100008a4 	.word	0x100008a4
    3398:	10000374 	.word	0x10000374
    339c:	10000cb0 	.word	0x10000cb0

000033a0 <_free_r>:
    33a0:	2900      	cmp	r1, #0
    33a2:	d04e      	beq.n	3442 <_free_r+0xa2>
    33a4:	e92d 41f0 	stmdb	sp!, {r4, r5, r6, r7, r8, lr}
    33a8:	460c      	mov	r4, r1
    33aa:	4680      	mov	r8, r0
    33ac:	f7ff fb6c 	bl	2a88 <__malloc_lock>
    33b0:	f854 7c04 	ldr.w	r7, [r4, #-4]
    33b4:	4962      	ldr	r1, [pc, #392]	; (3540 <_free_r+0x1a0>)
    33b6:	f1a4 0508 	sub.w	r5, r4, #8
    33ba:	f027 0201 	bic.w	r2, r7, #1
    33be:	18ab      	adds	r3, r5, r2
    33c0:	688e      	ldr	r6, [r1, #8]
    33c2:	6858      	ldr	r0, [r3, #4]
    33c4:	429e      	cmp	r6, r3
    33c6:	f020 0003 	bic.w	r0, r0, #3
    33ca:	d05a      	beq.n	3482 <_free_r+0xe2>
    33cc:	07fe      	lsls	r6, r7, #31
    33ce:	6058      	str	r0, [r3, #4]
    33d0:	d40b      	bmi.n	33ea <_free_r+0x4a>
    33d2:	f854 7c08 	ldr.w	r7, [r4, #-8]
    33d6:	f101 0e08 	add.w	lr, r1, #8
    33da:	1bed      	subs	r5, r5, r7
    33dc:	68ac      	ldr	r4, [r5, #8]
    33de:	443a      	add	r2, r7
    33e0:	4574      	cmp	r4, lr
    33e2:	d067      	beq.n	34b4 <_free_r+0x114>
    33e4:	68ef      	ldr	r7, [r5, #12]
    33e6:	60e7      	str	r7, [r4, #12]
    33e8:	60bc      	str	r4, [r7, #8]
    33ea:	181c      	adds	r4, r3, r0
    33ec:	6864      	ldr	r4, [r4, #4]
    33ee:	07e4      	lsls	r4, r4, #31
    33f0:	d40c      	bmi.n	340c <_free_r+0x6c>
    33f2:	4f54      	ldr	r7, [pc, #336]	; (3544 <_free_r+0x1a4>)
    33f4:	689c      	ldr	r4, [r3, #8]
    33f6:	4402      	add	r2, r0
    33f8:	42bc      	cmp	r4, r7
    33fa:	d07c      	beq.n	34f6 <_free_r+0x156>
    33fc:	68d8      	ldr	r0, [r3, #12]
    33fe:	f042 0301 	orr.w	r3, r2, #1
    3402:	60e0      	str	r0, [r4, #12]
    3404:	6084      	str	r4, [r0, #8]
    3406:	606b      	str	r3, [r5, #4]
    3408:	50aa      	str	r2, [r5, r2]
    340a:	e003      	b.n	3414 <_free_r+0x74>
    340c:	f042 0301 	orr.w	r3, r2, #1
    3410:	606b      	str	r3, [r5, #4]
    3412:	50aa      	str	r2, [r5, r2]
    3414:	f5b2 7f00 	cmp.w	r2, #512	; 0x200
    3418:	d214      	bcs.n	3444 <_free_r+0xa4>
    341a:	08d2      	lsrs	r2, r2, #3
    341c:	eb01 03c2 	add.w	r3, r1, r2, lsl #3
    3420:	2401      	movs	r4, #1
    3422:	6848      	ldr	r0, [r1, #4]
    3424:	1092      	asrs	r2, r2, #2
    3426:	fa04 f202 	lsl.w	r2, r4, r2
    342a:	689c      	ldr	r4, [r3, #8]
    342c:	4310      	orrs	r0, r2
    342e:	60ac      	str	r4, [r5, #8]
    3430:	60eb      	str	r3, [r5, #12]
    3432:	6048      	str	r0, [r1, #4]
    3434:	609d      	str	r5, [r3, #8]
    3436:	60e5      	str	r5, [r4, #12]
    3438:	4640      	mov	r0, r8
    343a:	e8bd 41f0 	ldmia.w	sp!, {r4, r5, r6, r7, r8, lr}
    343e:	f7ff bb25 	b.w	2a8c <__malloc_unlock>
    3442:	4770      	bx	lr
    3444:	0a53      	lsrs	r3, r2, #9
    3446:	2b04      	cmp	r3, #4
    3448:	d847      	bhi.n	34da <_free_r+0x13a>
    344a:	0993      	lsrs	r3, r2, #6
    344c:	f103 0438 	add.w	r4, r3, #56	; 0x38
    3450:	0060      	lsls	r0, r4, #1
    3452:	eb01 0080 	add.w	r0, r1, r0, lsl #2
    3456:	6883      	ldr	r3, [r0, #8]
    3458:	4939      	ldr	r1, [pc, #228]	; (3540 <_free_r+0x1a0>)
    345a:	4283      	cmp	r3, r0
    345c:	d043      	beq.n	34e6 <_free_r+0x146>
    345e:	6859      	ldr	r1, [r3, #4]
    3460:	f021 0103 	bic.w	r1, r1, #3
    3464:	4291      	cmp	r1, r2
    3466:	d902      	bls.n	346e <_free_r+0xce>
    3468:	689b      	ldr	r3, [r3, #8]
    346a:	4298      	cmp	r0, r3
    346c:	d1f7      	bne.n	345e <_free_r+0xbe>
